
build/uboot.bin:     file format binary


Disassembly of section .data:

00000000 <.data>:
       0:	1000      	asrs	r0, r0, #32
       2:	2000      	movs	r0, #0
       4:	0a9d      	lsrs	r5, r3, #10
       6:	0000      	movs	r0, r0
       8:	0ac5      	lsrs	r5, r0, #11
       a:	0000      	movs	r0, r0
       c:	0ac7      	lsrs	r7, r0, #11
       e:	0000      	movs	r0, r0
      10:	0ac9      	lsrs	r1, r1, #11
      12:	0000      	movs	r0, r0
      14:	0acb      	lsrs	r3, r1, #11
      16:	0000      	movs	r0, r0
      18:	0acd      	lsrs	r5, r1, #11
	...
      2a:	0000      	movs	r0, r0
      2c:	0acf      	lsrs	r7, r1, #11
      2e:	0000      	movs	r0, r0
      30:	0ad1      	lsrs	r1, r2, #11
      32:	0000      	movs	r0, r0
      34:	0000      	movs	r0, r0
      36:	0000      	movs	r0, r0
      38:	0ad3      	lsrs	r3, r2, #11
      3a:	0000      	movs	r0, r0
      3c:	0ad5      	lsrs	r5, r2, #11
      3e:	0000      	movs	r0, r0
      40:	0ad7      	lsrs	r7, r2, #11
      42:	0000      	movs	r0, r0
      44:	0ad7      	lsrs	r7, r2, #11
      46:	0000      	movs	r0, r0
      48:	09e9      	lsrs	r1, r5, #7
      4a:	0000      	movs	r0, r0
      4c:	0ad7      	lsrs	r7, r2, #11
      4e:	0000      	movs	r0, r0
      50:	0ad7      	lsrs	r7, r2, #11
      52:	0000      	movs	r0, r0
      54:	0ad7      	lsrs	r7, r2, #11
      56:	0000      	movs	r0, r0
      58:	0ad7      	lsrs	r7, r2, #11
      5a:	0000      	movs	r0, r0
      5c:	0ad7      	lsrs	r7, r2, #11
      5e:	0000      	movs	r0, r0
      60:	0ad7      	lsrs	r7, r2, #11
      62:	0000      	movs	r0, r0
      64:	0ad7      	lsrs	r7, r2, #11
      66:	0000      	movs	r0, r0
      68:	07b1      	lsls	r1, r6, #30
      6a:	0000      	movs	r0, r0
      6c:	0ad7      	lsrs	r7, r2, #11
      6e:	0000      	movs	r0, r0
      70:	0ad7      	lsrs	r7, r2, #11
      72:	0000      	movs	r0, r0
      74:	0ad7      	lsrs	r7, r2, #11
      76:	0000      	movs	r0, r0
      78:	0ad7      	lsrs	r7, r2, #11
      7a:	0000      	movs	r0, r0
      7c:	0ad7      	lsrs	r7, r2, #11
      7e:	0000      	movs	r0, r0
      80:	0ad7      	lsrs	r7, r2, #11
      82:	0000      	movs	r0, r0
      84:	0ad7      	lsrs	r7, r2, #11
      86:	0000      	movs	r0, r0
      88:	0ad7      	lsrs	r7, r2, #11
      8a:	0000      	movs	r0, r0
      8c:	0ad7      	lsrs	r7, r2, #11
      8e:	0000      	movs	r0, r0
      90:	0ad7      	lsrs	r7, r2, #11
      92:	0000      	movs	r0, r0
      94:	0ad7      	lsrs	r7, r2, #11
      96:	0000      	movs	r0, r0
      98:	0ad7      	lsrs	r7, r2, #11
      9a:	0000      	movs	r0, r0
      9c:	0ad7      	lsrs	r7, r2, #11
      9e:	0000      	movs	r0, r0
      a0:	0ad7      	lsrs	r7, r2, #11
      a2:	0000      	movs	r0, r0
      a4:	0ad7      	lsrs	r7, r2, #11
      a6:	0000      	movs	r0, r0
      a8:	0ad7      	lsrs	r7, r2, #11
      aa:	0000      	movs	r0, r0
      ac:	0ad7      	lsrs	r7, r2, #11
      ae:	0000      	movs	r0, r0
      b0:	0ad7      	lsrs	r7, r2, #11
      b2:	0000      	movs	r0, r0
      b4:	0ad7      	lsrs	r7, r2, #11
	...
      be:	0000      	movs	r0, r0
      c0:	0ad7      	lsrs	r7, r2, #11
      c2:	0000      	movs	r0, r0
      c4:	0ad7      	lsrs	r7, r2, #11
      c6:	0000      	movs	r0, r0
      c8:	0ad7      	lsrs	r7, r2, #11
      ca:	0000      	movs	r0, r0
      cc:	0ad7      	lsrs	r7, r2, #11
      ce:	0000      	movs	r0, r0
      d0:	0ad7      	lsrs	r7, r2, #11
      d2:	0000      	movs	r0, r0
      d4:	0ad7      	lsrs	r7, r2, #11
      d6:	0000      	movs	r0, r0
      d8:	0ad7      	lsrs	r7, r2, #11
	...
     1fe:	0000      	movs	r0, r0
     200:	b510      	push	{r4, lr}
     202:	4c05      	ldr	r4, [pc, #20]	; (0x218)
     204:	7823      	ldrb	r3, [r4, #0]
     206:	b933      	cbnz	r3, 0x216
     208:	4b04      	ldr	r3, [pc, #16]	; (0x21c)
     20a:	b113      	cbz	r3, 0x212
     20c:	4804      	ldr	r0, [pc, #16]	; (0x220)
     20e:	f3af 8000 	nop.w
     212:	2301      	movs	r3, #1
     214:	7023      	strb	r3, [r4, #0]
     216:	bd10      	pop	{r4, pc}
     218:	0078      	lsls	r0, r7, #1
     21a:	2000      	movs	r0, #0
     21c:	0000      	movs	r0, r0
     21e:	0000      	movs	r0, r0
     220:	1bcc      	subs	r4, r1, r7
     222:	0000      	movs	r0, r0
     224:	b508      	push	{r3, lr}
     226:	4b03      	ldr	r3, [pc, #12]	; (0x234)
     228:	b11b      	cbz	r3, 0x232
     22a:	4903      	ldr	r1, [pc, #12]	; (0x238)
     22c:	4803      	ldr	r0, [pc, #12]	; (0x23c)
     22e:	f3af 8000 	nop.w
     232:	bd08      	pop	{r3, pc}
     234:	0000      	movs	r0, r0
     236:	0000      	movs	r0, r0
     238:	007c      	lsls	r4, r7, #1
     23a:	2000      	movs	r0, #0
     23c:	1bcc      	subs	r4, r1, r7
     23e:	0000      	movs	r0, r0
     240:	4b15      	ldr	r3, [pc, #84]	; (0x298)
     242:	2b00      	cmp	r3, #0
     244:	bf08      	it	eq
     246:	4b13      	ldreq	r3, [pc, #76]	; (0x294)
     248:	469d      	mov	sp, r3
     24a:	f5a3 3a80 	sub.w	sl, r3, #65536	; 0x10000
     24e:	2100      	movs	r1, #0
     250:	468b      	mov	fp, r1
     252:	460f      	mov	r7, r1
     254:	4813      	ldr	r0, [pc, #76]	; (0x2a4)
     256:	4a14      	ldr	r2, [pc, #80]	; (0x2a8)
     258:	1a12      	subs	r2, r2, r0
     25a:	f000 ff99 	bl	0x1190
     25e:	4b0f      	ldr	r3, [pc, #60]	; (0x29c)
     260:	2b00      	cmp	r3, #0
     262:	d000      	beq.n	0x266
     264:	4798      	blx	r3
     266:	4b0e      	ldr	r3, [pc, #56]	; (0x2a0)
     268:	2b00      	cmp	r3, #0
     26a:	d000      	beq.n	0x26e
     26c:	4798      	blx	r3
     26e:	2000      	movs	r0, #0
     270:	2100      	movs	r1, #0
     272:	0004      	movs	r4, r0
     274:	000d      	movs	r5, r1
     276:	480d      	ldr	r0, [pc, #52]	; (0x2ac)
     278:	2800      	cmp	r0, #0
     27a:	d002      	beq.n	0x282
     27c:	480c      	ldr	r0, [pc, #48]	; (0x2b0)
     27e:	f3af 8000 	nop.w
     282:	f000 ff61 	bl	0x1148
     286:	0020      	movs	r0, r4
     288:	0029      	movs	r1, r5
     28a:	f000 fa1d 	bl	0x6c8
     28e:	f000 ff47 	bl	0x1120
     292:	bf00      	nop
     294:	0000      	movs	r0, r0
     296:	0008      	movs	r0, r1
     298:	1000      	asrs	r0, r0, #32
     29a:	2000      	movs	r0, #0
	...
     2a4:	0078      	lsls	r0, r7, #1
     2a6:	2000      	movs	r0, #0
     2a8:	03d8      	lsls	r0, r3, #15
     2aa:	2000      	movs	r0, #0
	...
     2b4:	b40f      	push	{r0, r1, r2, r3}
     2b6:	b580      	push	{r7, lr}
     2b8:	b082      	sub	sp, #8
     2ba:	af00      	add	r7, sp, #0
     2bc:	f107 0314 	add.w	r3, r7, #20
     2c0:	603b      	str	r3, [r7, #0]
     2c2:	683b      	ldr	r3, [r7, #0]
     2c4:	693a      	ldr	r2, [r7, #16]
     2c6:	21ff      	movs	r1, #255	; 0xff
     2c8:	4807      	ldr	r0, [pc, #28]	; (0x2e8)
     2ca:	f000 ff95 	bl	0x11f8
     2ce:	6078      	str	r0, [r7, #4]
     2d0:	6879      	ldr	r1, [r7, #4]
     2d2:	4805      	ldr	r0, [pc, #20]	; (0x2e8)
     2d4:	f000 fb22 	bl	0x91c
     2d8:	bf00      	nop
     2da:	3708      	adds	r7, #8
     2dc:	46bd      	mov	sp, r7
     2de:	e8bd 4080 	ldmia.w	sp!, {r7, lr}
     2e2:	b004      	add	sp, #16
     2e4:	4770      	bx	lr
     2e6:	bf00      	nop
     2e8:	00c8      	lsls	r0, r1, #3
     2ea:	2000      	movs	r0, #0
     2ec:	b480      	push	{r7}
     2ee:	af00      	add	r7, sp, #0
     2f0:	f243 3e31 	movw	lr, #13105	; 0x3331
     2f4:	f243 3531 	movw	r5, #13105	; 0x3331
     2f8:	4728      	bx	r5
     2fa:	bf00      	nop
     2fc:	46bd      	mov	sp, r7
     2fe:	f85d 7b04 	ldr.w	r7, [sp], #4
     302:	4770      	bx	lr
     304:	b580      	push	{r7, lr}
     306:	b084      	sub	sp, #16
     308:	af00      	add	r7, sp, #0
     30a:	6078      	str	r0, [r7, #4]
     30c:	b672      	cpsid	i
     30e:	2300      	movs	r3, #0
     310:	60fb      	str	r3, [r7, #12]
     312:	e009      	b.n	0x328
     314:	4a16      	ldr	r2, [pc, #88]	; (0x370)
     316:	68fb      	ldr	r3, [r7, #12]
     318:	3320      	adds	r3, #32
     31a:	f04f 31ff 	mov.w	r1, #4294967295	; 0xffffffff
     31e:	f842 1023 	str.w	r1, [r2, r3, lsl #2]
     322:	68fb      	ldr	r3, [r7, #12]
     324:	3301      	adds	r3, #1
     326:	60fb      	str	r3, [r7, #12]
     328:	68fb      	ldr	r3, [r7, #12]
     32a:	2b07      	cmp	r3, #7
     32c:	ddf2      	ble.n	0x314
     32e:	2300      	movs	r3, #0
     330:	60fb      	str	r3, [r7, #12]
     332:	e009      	b.n	0x348
     334:	4a0e      	ldr	r2, [pc, #56]	; (0x370)
     336:	68fb      	ldr	r3, [r7, #12]
     338:	3360      	adds	r3, #96	; 0x60
     33a:	f04f 31ff 	mov.w	r1, #4294967295	; 0xffffffff
     33e:	f842 1023 	str.w	r1, [r2, r3, lsl #2]
     342:	68fb      	ldr	r3, [r7, #12]
     344:	3301      	adds	r3, #1
     346:	60fb      	str	r3, [r7, #12]
     348:	68fb      	ldr	r3, [r7, #12]
     34a:	2b07      	cmp	r3, #7
     34c:	ddf2      	ble.n	0x334
     34e:	f3bf 8f4f 	dsb	sy
     352:	f3bf 8f6f 	isb	sy
     356:	f3bf 8f4f 	dsb	sy
     35a:	f3bf 8f6f 	isb	sy
     35e:	b662      	cpsie	i
     360:	f7ff ffc4 	bl	0x2ec
     364:	2300      	movs	r3, #0
     366:	4618      	mov	r0, r3
     368:	3710      	adds	r7, #16
     36a:	46bd      	mov	sp, r7
     36c:	bd80      	pop	{r7, pc}
     36e:	bf00      	nop
     370:	e100      	b.n	0x574
     372:	e000      	b.n	0x376
     374:	b480      	push	{r7}
     376:	b083      	sub	sp, #12
     378:	af00      	add	r7, sp, #0
     37a:	6078      	str	r0, [r7, #4]
     37c:	bf00      	nop
     37e:	4b14      	ldr	r3, [pc, #80]	; (0x3d0)
     380:	f8d3 3400 	ldr.w	r3, [r3, #1024]	; 0x400
     384:	2b00      	cmp	r3, #0
     386:	d0fa      	beq.n	0x37e
     388:	4b11      	ldr	r3, [pc, #68]	; (0x3d0)
     38a:	2211      	movs	r2, #17
     38c:	f8c3 2504 	str.w	r2, [r3, #1284]	; 0x504
     390:	bf00      	nop
     392:	4b0f      	ldr	r3, [pc, #60]	; (0x3d0)
     394:	f8d3 3400 	ldr.w	r3, [r3, #1024]	; 0x400
     398:	2b00      	cmp	r3, #0
     39a:	d0fa      	beq.n	0x392
     39c:	4a0c      	ldr	r2, [pc, #48]	; (0x3d0)
     39e:	687b      	ldr	r3, [r7, #4]
     3a0:	f8c2 3508 	str.w	r3, [r2, #1288]	; 0x508
     3a4:	bf00      	nop
     3a6:	4b0a      	ldr	r3, [pc, #40]	; (0x3d0)
     3a8:	f8d3 3400 	ldr.w	r3, [r3, #1024]	; 0x400
     3ac:	2b00      	cmp	r3, #0
     3ae:	d0fa      	beq.n	0x3a6
     3b0:	4b07      	ldr	r3, [pc, #28]	; (0x3d0)
     3b2:	2200      	movs	r2, #0
     3b4:	f8c3 2504 	str.w	r2, [r3, #1284]	; 0x504
     3b8:	bf00      	nop
     3ba:	4b05      	ldr	r3, [pc, #20]	; (0x3d0)
     3bc:	f8d3 3400 	ldr.w	r3, [r3, #1024]	; 0x400
     3c0:	2b00      	cmp	r3, #0
     3c2:	d0fa      	beq.n	0x3ba
     3c4:	bf00      	nop
     3c6:	370c      	adds	r7, #12
     3c8:	46bd      	mov	sp, r7
     3ca:	f85d 7b04 	ldr.w	r7, [sp], #4
     3ce:	4770      	bx	lr
     3d0:	e000      	b.n	0x3d4
     3d2:	4001      	ands	r1, r0
     3d4:	b480      	push	{r7}
     3d6:	b083      	sub	sp, #12
     3d8:	af00      	add	r7, sp, #0
     3da:	6078      	str	r0, [r7, #4]
     3dc:	6039      	str	r1, [r7, #0]
     3de:	bf00      	nop
     3e0:	4b13      	ldr	r3, [pc, #76]	; (0x430)
     3e2:	f8d3 3400 	ldr.w	r3, [r3, #1024]	; 0x400
     3e6:	2b00      	cmp	r3, #0
     3e8:	d0fa      	beq.n	0x3e0
     3ea:	4b11      	ldr	r3, [pc, #68]	; (0x430)
     3ec:	2201      	movs	r2, #1
     3ee:	f8c3 2504 	str.w	r2, [r3, #1284]	; 0x504
     3f2:	bf00      	nop
     3f4:	4b0e      	ldr	r3, [pc, #56]	; (0x430)
     3f6:	f8d3 3400 	ldr.w	r3, [r3, #1024]	; 0x400
     3fa:	2b00      	cmp	r3, #0
     3fc:	d0fa      	beq.n	0x3f4
     3fe:	687b      	ldr	r3, [r7, #4]
     400:	683a      	ldr	r2, [r7, #0]
     402:	601a      	str	r2, [r3, #0]
     404:	bf00      	nop
     406:	4b0a      	ldr	r3, [pc, #40]	; (0x430)
     408:	f8d3 3400 	ldr.w	r3, [r3, #1024]	; 0x400
     40c:	2b00      	cmp	r3, #0
     40e:	d0fa      	beq.n	0x406
     410:	4b07      	ldr	r3, [pc, #28]	; (0x430)
     412:	2200      	movs	r2, #0
     414:	f8c3 2504 	str.w	r2, [r3, #1284]	; 0x504
     418:	bf00      	nop
     41a:	4b05      	ldr	r3, [pc, #20]	; (0x430)
     41c:	f8d3 3400 	ldr.w	r3, [r3, #1024]	; 0x400
     420:	2b00      	cmp	r3, #0
     422:	d0fa      	beq.n	0x41a
     424:	bf00      	nop
     426:	370c      	adds	r7, #12
     428:	46bd      	mov	sp, r7
     42a:	f85d 7b04 	ldr.w	r7, [sp], #4
     42e:	4770      	bx	lr
     430:	e000      	b.n	0x434
     432:	4001      	ands	r1, r0
     434:	b580      	push	{r7, lr}
     436:	b08e      	sub	sp, #56	; 0x38
     438:	af00      	add	r7, sp, #0
     43a:	f04f 43a0 	mov.w	r3, #1342177280	; 0x50000000
     43e:	f04f 6280 	mov.w	r2, #67108864	; 0x4000000
     442:	f8c3 2508 	str.w	r2, [r3, #1288]	; 0x508
     446:	f44f 3300 	mov.w	r3, #131072	; 0x20000
     44a:	61fb      	str	r3, [r7, #28]
     44c:	f44f 5340 	mov.w	r3, #12288	; 0x3000
     450:	61bb      	str	r3, [r7, #24]
     452:	2300      	movs	r3, #0
     454:	637b      	str	r3, [r7, #52]	; 0x34
     456:	2300      	movs	r3, #0
     458:	633b      	str	r3, [r7, #48]	; 0x30
     45a:	2300      	movs	r3, #0
     45c:	62fb      	str	r3, [r7, #44]	; 0x2c
     45e:	69fb      	ldr	r3, [r7, #28]
     460:	681b      	ldr	r3, [r3, #0]
     462:	2b00      	cmp	r3, #0
     464:	d12a      	bne.n	0x4bc
     466:	2301      	movs	r3, #1
     468:	62fb      	str	r3, [r7, #44]	; 0x2c
     46a:	e027      	b.n	0x4bc
     46c:	6b3b      	ldr	r3, [r7, #48]	; 0x30
     46e:	3301      	adds	r3, #1
     470:	633b      	str	r3, [r7, #48]	; 0x30
     472:	6b3b      	ldr	r3, [r7, #48]	; 0x30
     474:	2b64      	cmp	r3, #100	; 0x64
     476:	d809      	bhi.n	0x48c
     478:	69fa      	ldr	r2, [r7, #28]
     47a:	6b7b      	ldr	r3, [r7, #52]	; 0x34
     47c:	441a      	add	r2, r3
     47e:	6b3b      	ldr	r3, [r7, #48]	; 0x30
     480:	4413      	add	r3, r2
     482:	681b      	ldr	r3, [r3, #0]
     484:	f1b3 3fff 	cmp.w	r3, #4294967295	; 0xffffffff
     488:	d0f0      	beq.n	0x46c
     48a:	e000      	b.n	0x48e
     48c:	bf00      	nop
     48e:	6b3b      	ldr	r3, [r7, #48]	; 0x30
     490:	2b63      	cmp	r3, #99	; 0x63
     492:	d803      	bhi.n	0x49c
     494:	6b7a      	ldr	r2, [r7, #52]	; 0x34
     496:	6b3b      	ldr	r3, [r7, #48]	; 0x30
     498:	4413      	add	r3, r2
     49a:	637b      	str	r3, [r7, #52]	; 0x34
     49c:	2300      	movs	r3, #0
     49e:	633b      	str	r3, [r7, #48]	; 0x30
     4a0:	69fa      	ldr	r2, [r7, #28]
     4a2:	6b7b      	ldr	r3, [r7, #52]	; 0x34
     4a4:	4413      	add	r3, r2
     4a6:	681b      	ldr	r3, [r3, #0]
     4a8:	f1b3 3fff 	cmp.w	r3, #4294967295	; 0xffffffff
     4ac:	d00a      	beq.n	0x4c4
     4ae:	6b7b      	ldr	r3, [r7, #52]	; 0x34
     4b0:	3301      	adds	r3, #1
     4b2:	637b      	str	r3, [r7, #52]	; 0x34
     4b4:	6b7b      	ldr	r3, [r7, #52]	; 0x34
     4b6:	f5b3 3fa8 	cmp.w	r3, #86016	; 0x15000
     4ba:	d205      	bcs.n	0x4c8
     4bc:	6afb      	ldr	r3, [r7, #44]	; 0x2c
     4be:	2b00      	cmp	r3, #0
     4c0:	d0da      	beq.n	0x478
     4c2:	e002      	b.n	0x4ca
     4c4:	bf00      	nop
     4c6:	e000      	b.n	0x4ca
     4c8:	bf00      	nop
     4ca:	6b79      	ldr	r1, [r7, #52]	; 0x34
     4cc:	4876      	ldr	r0, [pc, #472]	; (0x6a8)
     4ce:	f7ff fef1 	bl	0x2b4
     4d2:	6b7b      	ldr	r3, [r7, #52]	; 0x34
     4d4:	2b09      	cmp	r3, #9
     4d6:	d837      	bhi.n	0x548
     4d8:	69bb      	ldr	r3, [r7, #24]
     4da:	3b04      	subs	r3, #4
     4dc:	681b      	ldr	r3, [r3, #0]
     4de:	4a73      	ldr	r2, [pc, #460]	; (0x6ac)
     4e0:	6013      	str	r3, [r2, #0]
     4e2:	4b72      	ldr	r3, [pc, #456]	; (0x6ac)
     4e4:	681b      	ldr	r3, [r3, #0]
     4e6:	4619      	mov	r1, r3
     4e8:	4871      	ldr	r0, [pc, #452]	; (0x6b0)
     4ea:	f7ff fee3 	bl	0x2b4
     4ee:	20f0      	movs	r0, #240	; 0xf0
     4f0:	f000 f99e 	bl	0x830
     4f4:	2300      	movs	r3, #0
     4f6:	62bb      	str	r3, [r7, #40]	; 0x28
     4f8:	e022      	b.n	0x540
     4fa:	6abb      	ldr	r3, [r7, #40]	; 0x28
     4fc:	3301      	adds	r3, #1
     4fe:	62bb      	str	r3, [r7, #40]	; 0x28
     500:	f04f 43a0 	mov.w	r3, #1342177280	; 0x50000000
     504:	f04f 6280 	mov.w	r2, #67108864	; 0x4000000
     508:	f8c3 250c 	str.w	r2, [r3, #1292]	; 0x50c
     50c:	2300      	movs	r3, #0
     50e:	603b      	str	r3, [r7, #0]
     510:	e002      	b.n	0x518
     512:	683b      	ldr	r3, [r7, #0]
     514:	3301      	adds	r3, #1
     516:	603b      	str	r3, [r7, #0]
     518:	683b      	ldr	r3, [r7, #0]
     51a:	4a66      	ldr	r2, [pc, #408]	; (0x6b4)
     51c:	4293      	cmp	r3, r2
     51e:	ddf8      	ble.n	0x512
     520:	f04f 43a0 	mov.w	r3, #1342177280	; 0x50000000
     524:	f04f 6280 	mov.w	r2, #67108864	; 0x4000000
     528:	f8c3 2508 	str.w	r2, [r3, #1288]	; 0x508
     52c:	2300      	movs	r3, #0
     52e:	603b      	str	r3, [r7, #0]
     530:	e002      	b.n	0x538
     532:	683b      	ldr	r3, [r7, #0]
     534:	3301      	adds	r3, #1
     536:	603b      	str	r3, [r7, #0]
     538:	683b      	ldr	r3, [r7, #0]
     53a:	4a5e      	ldr	r2, [pc, #376]	; (0x6b4)
     53c:	4293      	cmp	r3, r2
     53e:	ddf8      	ble.n	0x532
     540:	6abb      	ldr	r3, [r7, #40]	; 0x28
     542:	2b09      	cmp	r3, #9
     544:	ddd9      	ble.n	0x4fa
     546:	e0ab      	b.n	0x6a0
     548:	f04f 5380 	mov.w	r3, #268435456	; 0x10000000
     54c:	691b      	ldr	r3, [r3, #16]
     54e:	617b      	str	r3, [r7, #20]
     550:	69ba      	ldr	r2, [r7, #24]
     552:	697b      	ldr	r3, [r7, #20]
     554:	fbb2 f3f3 	udiv	r3, r2, r3
     558:	613b      	str	r3, [r7, #16]
     55a:	69ba      	ldr	r2, [r7, #24]
     55c:	6b7b      	ldr	r3, [r7, #52]	; 0x34
     55e:	441a      	add	r2, r3
     560:	697b      	ldr	r3, [r7, #20]
     562:	fbb2 f3f3 	udiv	r3, r2, r3
     566:	3301      	adds	r3, #1
     568:	60fb      	str	r3, [r7, #12]
     56a:	68fb      	ldr	r3, [r7, #12]
     56c:	693a      	ldr	r2, [r7, #16]
     56e:	6979      	ldr	r1, [r7, #20]
     570:	4851      	ldr	r0, [pc, #324]	; (0x6b8)
     572:	f7ff fe9f 	bl	0x2b4
     576:	693b      	ldr	r3, [r7, #16]
     578:	627b      	str	r3, [r7, #36]	; 0x24
     57a:	e01b      	b.n	0x5b4
     57c:	6a7b      	ldr	r3, [r7, #36]	; 0x24
     57e:	f003 0301 	and.w	r3, r3, #1
     582:	2b00      	cmp	r3, #0
     584:	d006      	beq.n	0x594
     586:	f04f 43a0 	mov.w	r3, #1342177280	; 0x50000000
     58a:	f04f 6280 	mov.w	r2, #67108864	; 0x4000000
     58e:	f8c3 2508 	str.w	r2, [r3, #1288]	; 0x508
     592:	e005      	b.n	0x5a0
     594:	f04f 43a0 	mov.w	r3, #1342177280	; 0x50000000
     598:	f04f 6280 	mov.w	r2, #67108864	; 0x4000000
     59c:	f8c3 250c 	str.w	r2, [r3, #1292]	; 0x50c
     5a0:	6a7b      	ldr	r3, [r7, #36]	; 0x24
     5a2:	697a      	ldr	r2, [r7, #20]
     5a4:	fb02 f303 	mul.w	r3, r2, r3
     5a8:	4618      	mov	r0, r3
     5aa:	f7ff fee3 	bl	0x374
     5ae:	6a7b      	ldr	r3, [r7, #36]	; 0x24
     5b0:	3301      	adds	r3, #1
     5b2:	627b      	str	r3, [r7, #36]	; 0x24
     5b4:	6a7b      	ldr	r3, [r7, #36]	; 0x24
     5b6:	68fa      	ldr	r2, [r7, #12]
     5b8:	429a      	cmp	r2, r3
     5ba:	d2df      	bcs.n	0x57c
     5bc:	69fb      	ldr	r3, [r7, #28]
     5be:	681b      	ldr	r3, [r3, #0]
     5c0:	60bb      	str	r3, [r7, #8]
     5c2:	69fb      	ldr	r3, [r7, #28]
     5c4:	3304      	adds	r3, #4
     5c6:	681b      	ldr	r3, [r3, #0]
     5c8:	4a38      	ldr	r2, [pc, #224]	; (0x6ac)
     5ca:	6013      	str	r3, [r2, #0]
     5cc:	4b37      	ldr	r3, [pc, #220]	; (0x6ac)
     5ce:	681a      	ldr	r2, [r3, #0]
     5d0:	69bb      	ldr	r3, [r7, #24]
     5d2:	4413      	add	r3, r2
     5d4:	4a35      	ldr	r2, [pc, #212]	; (0x6ac)
     5d6:	6013      	str	r3, [r2, #0]
     5d8:	4b34      	ldr	r3, [pc, #208]	; (0x6ac)
     5da:	681b      	ldr	r3, [r3, #0]
     5dc:	4619      	mov	r1, r3
     5de:	4837      	ldr	r0, [pc, #220]	; (0x6bc)
     5e0:	f7ff fe68 	bl	0x2b4
     5e4:	69bb      	ldr	r3, [r7, #24]
     5e6:	1f1a      	subs	r2, r3, #4
     5e8:	4b30      	ldr	r3, [pc, #192]	; (0x6ac)
     5ea:	681b      	ldr	r3, [r3, #0]
     5ec:	4619      	mov	r1, r3
     5ee:	4610      	mov	r0, r2
     5f0:	f7ff fef0 	bl	0x3d4
     5f4:	68b9      	ldr	r1, [r7, #8]
     5f6:	69b8      	ldr	r0, [r7, #24]
     5f8:	f7ff feec 	bl	0x3d4
     5fc:	2100      	movs	r1, #0
     5fe:	69f8      	ldr	r0, [r7, #28]
     600:	f7ff fee8 	bl	0x3d4
     604:	69bb      	ldr	r3, [r7, #24]
     606:	3b04      	subs	r3, #4
     608:	681b      	ldr	r3, [r3, #0]
     60a:	4619      	mov	r1, r3
     60c:	482c      	ldr	r0, [pc, #176]	; (0x6c0)
     60e:	f7ff fe51 	bl	0x2b4
     612:	f04f 43a0 	mov.w	r3, #1342177280	; 0x50000000
     616:	f04f 6280 	mov.w	r2, #67108864	; 0x4000000
     61a:	f8c3 250c 	str.w	r2, [r3, #1292]	; 0x50c
     61e:	2301      	movs	r3, #1
     620:	623b      	str	r3, [r7, #32]
     622:	e038      	b.n	0x696
     624:	6a3b      	ldr	r3, [r7, #32]
     626:	009b      	lsls	r3, r3, #2
     628:	461a      	mov	r2, r3
     62a:	69fb      	ldr	r3, [r7, #28]
     62c:	4413      	add	r3, r2
     62e:	681b      	ldr	r3, [r3, #0]
     630:	607b      	str	r3, [r7, #4]
     632:	6a3b      	ldr	r3, [r7, #32]
     634:	009b      	lsls	r3, r3, #2
     636:	461a      	mov	r2, r3
     638:	69bb      	ldr	r3, [r7, #24]
     63a:	4413      	add	r3, r2
     63c:	6879      	ldr	r1, [r7, #4]
     63e:	4618      	mov	r0, r3
     640:	f7ff fec8 	bl	0x3d4
     644:	6a3a      	ldr	r2, [r7, #32]
     646:	4b1f      	ldr	r3, [pc, #124]	; (0x6c4)
     648:	fb83 1302 	smull	r1, r3, r3, r2
     64c:	1199      	asrs	r1, r3, #6
     64e:	17d3      	asrs	r3, r2, #31
     650:	1acb      	subs	r3, r1, r3
     652:	21c8      	movs	r1, #200	; 0xc8
     654:	fb01 f303 	mul.w	r3, r1, r3
     658:	1ad3      	subs	r3, r2, r3
     65a:	2b01      	cmp	r3, #1
     65c:	d105      	bne.n	0x66a
     65e:	f04f 43a0 	mov.w	r3, #1342177280	; 0x50000000
     662:	f04f 6280 	mov.w	r2, #67108864	; 0x4000000
     666:	f8c3 250c 	str.w	r2, [r3, #1292]	; 0x50c
     66a:	6a3a      	ldr	r2, [r7, #32]
     66c:	4b15      	ldr	r3, [pc, #84]	; (0x6c4)
     66e:	fb83 1302 	smull	r1, r3, r3, r2
     672:	1199      	asrs	r1, r3, #6
     674:	17d3      	asrs	r3, r2, #31
     676:	1acb      	subs	r3, r1, r3
     678:	21c8      	movs	r1, #200	; 0xc8
     67a:	fb01 f303 	mul.w	r3, r1, r3
     67e:	1ad3      	subs	r3, r2, r3
     680:	2b64      	cmp	r3, #100	; 0x64
     682:	d105      	bne.n	0x690
     684:	f04f 43a0 	mov.w	r3, #1342177280	; 0x50000000
     688:	f04f 6280 	mov.w	r2, #67108864	; 0x4000000
     68c:	f8c3 2508 	str.w	r2, [r3, #1288]	; 0x508
     690:	6a3b      	ldr	r3, [r7, #32]
     692:	3301      	adds	r3, #1
     694:	623b      	str	r3, [r7, #32]
     696:	6b7b      	ldr	r3, [r7, #52]	; 0x34
     698:	089a      	lsrs	r2, r3, #2
     69a:	6a3b      	ldr	r3, [r7, #32]
     69c:	429a      	cmp	r2, r3
     69e:	d8c1      	bhi.n	0x624
     6a0:	3738      	adds	r7, #56	; 0x38
     6a2:	46bd      	mov	sp, r7
     6a4:	bd80      	pop	{r7, pc}
     6a6:	bf00      	nop
     6a8:	1ae0      	subs	r0, r4, r3
     6aa:	0000      	movs	r0, r0
     6ac:	0094      	lsls	r4, r2, #2
     6ae:	2000      	movs	r0, #0
     6b0:	1af0      	subs	r0, r6, r3
     6b2:	0000      	movs	r0, r0
     6b4:	a11f      	add	r1, pc, #124	; (adr r1, 0x734)
     6b6:	0007      	movs	r7, r0
     6b8:	1b0c      	subs	r4, r1, r4
     6ba:	0000      	movs	r0, r0
     6bc:	1b38      	subs	r0, r7, r4
     6be:	0000      	movs	r0, r0
     6c0:	1b54      	subs	r4, r2, r5
     6c2:	0000      	movs	r0, r0
     6c4:	851f      	strh	r7, [r3, #40]	; 0x28
     6c6:	51eb      	str	r3, [r5, r7]
     6c8:	b580      	push	{r7, lr}
     6ca:	af00      	add	r7, sp, #0
     6cc:	f04f 43a0 	mov.w	r3, #1342177280	; 0x50000000
     6d0:	f04f 6280 	mov.w	r2, #67108864	; 0x4000000
     6d4:	f8c3 2518 	str.w	r2, [r3, #1304]	; 0x518
     6d8:	4b10      	ldr	r3, [pc, #64]	; (0x71c)
     6da:	681b      	ldr	r3, [r3, #0]
     6dc:	4618      	mov	r0, r3
     6de:	f7ff fe11 	bl	0x304
     6e2:	f000 f83b 	bl	0x75c
     6e6:	2104      	movs	r1, #4
     6e8:	2005      	movs	r0, #5
     6ea:	f000 f8db 	bl	0x8a4
     6ee:	f44f 70fa 	mov.w	r0, #500	; 0x1f4
     6f2:	f000 f89d 	bl	0x830
     6f6:	480a      	ldr	r0, [pc, #40]	; (0x720)
     6f8:	f7ff fddc 	bl	0x2b4
     6fc:	f7ff fe9a 	bl	0x434
     700:	4808      	ldr	r0, [pc, #32]	; (0x724)
     702:	f7ff fdd7 	bl	0x2b4
     706:	2032      	movs	r0, #50	; 0x32
     708:	f000 f892 	bl	0x830
     70c:	4b03      	ldr	r3, [pc, #12]	; (0x71c)
     70e:	681b      	ldr	r3, [r3, #0]
     710:	4618      	mov	r0, r3
     712:	f7ff fdf7 	bl	0x304
     716:	2300      	movs	r3, #0
     718:	4618      	mov	r0, r3
     71a:	bd80      	pop	{r7, pc}
     71c:	0094      	lsls	r4, r2, #2
     71e:	2000      	movs	r0, #0
     720:	1b78      	subs	r0, r7, r5
     722:	0000      	movs	r0, r0
     724:	1b84      	subs	r4, r0, r6
     726:	0000      	movs	r0, r0
     728:	b480      	push	{r7}
     72a:	b083      	sub	sp, #12
     72c:	af00      	add	r7, sp, #0
     72e:	4603      	mov	r3, r0
     730:	71fb      	strb	r3, [r7, #7]
     732:	79fb      	ldrb	r3, [r7, #7]
     734:	f003 021f 	and.w	r2, r3, #31
     738:	4907      	ldr	r1, [pc, #28]	; (0x758)
     73a:	f997 3007 	ldrsb.w	r3, [r7, #7]
     73e:	095b      	lsrs	r3, r3, #5
     740:	2001      	movs	r0, #1
     742:	fa00 f202 	lsl.w	r2, r0, r2
     746:	f841 2023 	str.w	r2, [r1, r3, lsl #2]
     74a:	bf00      	nop
     74c:	370c      	adds	r7, #12
     74e:	46bd      	mov	sp, r7
     750:	f85d 7b04 	ldr.w	r7, [sp], #4
     754:	4770      	bx	lr
     756:	bf00      	nop
     758:	e100      	b.n	0x95c
     75a:	e000      	b.n	0x75e
     75c:	b580      	push	{r7, lr}
     75e:	af00      	add	r7, sp, #0
     760:	4b11      	ldr	r3, [pc, #68]	; (0x7a8)
     762:	2204      	movs	r2, #4
     764:	f8c3 2540 	str.w	r2, [r3, #1344]	; 0x540
     768:	4b0f      	ldr	r3, [pc, #60]	; (0x7a8)
     76a:	2200      	movs	r2, #0
     76c:	f8c3 2504 	str.w	r2, [r3, #1284]	; 0x504
     770:	4b0d      	ldr	r3, [pc, #52]	; (0x7a8)
     772:	2201      	movs	r2, #1
     774:	f8c3 2508 	str.w	r2, [r3, #1288]	; 0x508
     778:	4b0b      	ldr	r3, [pc, #44]	; (0x7a8)
     77a:	2204      	movs	r2, #4
     77c:	f8c3 2510 	str.w	r2, [r3, #1296]	; 0x510
     780:	4b09      	ldr	r3, [pc, #36]	; (0x7a8)
     782:	f44f 3280 	mov.w	r2, #65536	; 0x10000
     786:	f8c3 2304 	str.w	r2, [r3, #772]	; 0x304
     78a:	4b07      	ldr	r3, [pc, #28]	; (0x7a8)
     78c:	2201      	movs	r2, #1
     78e:	f8c3 2200 	str.w	r2, [r3, #512]	; 0x200
     792:	200a      	movs	r0, #10
     794:	f7ff ffc8 	bl	0x728
     798:	4b03      	ldr	r3, [pc, #12]	; (0x7a8)
     79a:	2201      	movs	r2, #1
     79c:	601a      	str	r2, [r3, #0]
     79e:	4b03      	ldr	r3, [pc, #12]	; (0x7ac)
     7a0:	2201      	movs	r2, #1
     7a2:	701a      	strb	r2, [r3, #0]
     7a4:	bf00      	nop
     7a6:	bd80      	pop	{r7, pc}
     7a8:	a000      	add	r0, pc, #0	; (adr r0, 0x7ac)
     7aa:	4000      	ands	r0, r0
     7ac:	00ac      	lsls	r4, r5, #2
     7ae:	2000      	movs	r0, #0
     7b0:	b480      	push	{r7}
     7b2:	af00      	add	r7, sp, #0
     7b4:	4b18      	ldr	r3, [pc, #96]	; (0x818)
     7b6:	2200      	movs	r2, #0
     7b8:	f8c3 2140 	str.w	r2, [r3, #320]	; 0x140
     7bc:	4b17      	ldr	r3, [pc, #92]	; (0x81c)
     7be:	681b      	ldr	r3, [r3, #0]
     7c0:	3304      	adds	r3, #4
     7c2:	4a16      	ldr	r2, [pc, #88]	; (0x81c)
     7c4:	6013      	str	r3, [r2, #0]
     7c6:	4b16      	ldr	r3, [pc, #88]	; (0x820)
     7c8:	681b      	ldr	r3, [r3, #0]
     7ca:	3301      	adds	r3, #1
     7cc:	4a14      	ldr	r2, [pc, #80]	; (0x820)
     7ce:	6013      	str	r3, [r2, #0]
     7d0:	4b13      	ldr	r3, [pc, #76]	; (0x820)
     7d2:	681b      	ldr	r3, [r3, #0]
     7d4:	2b7c      	cmp	r3, #124	; 0x7c
     7d6:	d919      	bls.n	0x80c
     7d8:	4b12      	ldr	r3, [pc, #72]	; (0x824)
     7da:	681b      	ldr	r3, [r3, #0]
     7dc:	3301      	adds	r3, #1
     7de:	4a11      	ldr	r2, [pc, #68]	; (0x824)
     7e0:	6013      	str	r3, [r2, #0]
     7e2:	4b0f      	ldr	r3, [pc, #60]	; (0x820)
     7e4:	2200      	movs	r2, #0
     7e6:	601a      	str	r2, [r3, #0]
     7e8:	4b0f      	ldr	r3, [pc, #60]	; (0x828)
     7ea:	681b      	ldr	r3, [r3, #0]
     7ec:	3301      	adds	r3, #1
     7ee:	4a0e      	ldr	r2, [pc, #56]	; (0x828)
     7f0:	6013      	str	r3, [r2, #0]
     7f2:	4b0d      	ldr	r3, [pc, #52]	; (0x828)
     7f4:	681b      	ldr	r3, [r3, #0]
     7f6:	f5b3 7f7a 	cmp.w	r3, #1000	; 0x3e8
     7fa:	d307      	bcc.n	0x80c
     7fc:	4b0b      	ldr	r3, [pc, #44]	; (0x82c)
     7fe:	681b      	ldr	r3, [r3, #0]
     800:	3301      	adds	r3, #1
     802:	4a0a      	ldr	r2, [pc, #40]	; (0x82c)
     804:	6013      	str	r3, [r2, #0]
     806:	4b08      	ldr	r3, [pc, #32]	; (0x828)
     808:	2200      	movs	r2, #0
     80a:	601a      	str	r2, [r3, #0]
     80c:	bf00      	nop
     80e:	46bd      	mov	sp, r7
     810:	f85d 7b04 	ldr.w	r7, [sp], #4
     814:	4770      	bx	lr
     816:	bf00      	nop
     818:	a000      	add	r0, pc, #0	; (adr r0, 0x81c)
     81a:	4000      	ands	r0, r0
     81c:	0098      	lsls	r0, r3, #2
     81e:	2000      	movs	r0, #0
     820:	00a4      	lsls	r4, r4, #2
     822:	2000      	movs	r0, #0
     824:	009c      	lsls	r4, r3, #2
     826:	2000      	movs	r0, #0
     828:	00a8      	lsls	r0, r5, #2
     82a:	2000      	movs	r0, #0
     82c:	00a0      	lsls	r0, r4, #2
     82e:	2000      	movs	r0, #0
     830:	b480      	push	{r7}
     832:	b085      	sub	sp, #20
     834:	af00      	add	r7, sp, #0
     836:	6078      	str	r0, [r7, #4]
     838:	4b0b      	ldr	r3, [pc, #44]	; (0x868)
     83a:	781b      	ldrb	r3, [r3, #0]
     83c:	b2db      	uxtb	r3, r3
     83e:	2b00      	cmp	r3, #0
     840:	d00c      	beq.n	0x85c
     842:	4b0a      	ldr	r3, [pc, #40]	; (0x86c)
     844:	681a      	ldr	r2, [r3, #0]
     846:	687b      	ldr	r3, [r7, #4]
     848:	4413      	add	r3, r2
     84a:	60fb      	str	r3, [r7, #12]
     84c:	bf00      	nop
     84e:	4b07      	ldr	r3, [pc, #28]	; (0x86c)
     850:	681a      	ldr	r2, [r3, #0]
     852:	68fb      	ldr	r3, [r7, #12]
     854:	429a      	cmp	r2, r3
     856:	d1fa      	bne.n	0x84e
     858:	bf00      	nop
     85a:	e000      	b.n	0x85e
     85c:	bf00      	nop
     85e:	3714      	adds	r7, #20
     860:	46bd      	mov	sp, r7
     862:	f85d 7b04 	ldr.w	r7, [sp], #4
     866:	4770      	bx	lr
     868:	00ac      	lsls	r4, r5, #2
     86a:	2000      	movs	r0, #0
     86c:	009c      	lsls	r4, r3, #2
     86e:	2000      	movs	r0, #0
     870:	b480      	push	{r7}
     872:	b083      	sub	sp, #12
     874:	af00      	add	r7, sp, #0
     876:	4603      	mov	r3, r0
     878:	71fb      	strb	r3, [r7, #7]
     87a:	79fb      	ldrb	r3, [r7, #7]
     87c:	f003 021f 	and.w	r2, r3, #31
     880:	4907      	ldr	r1, [pc, #28]	; (0x8a0)
     882:	f997 3007 	ldrsb.w	r3, [r7, #7]
     886:	095b      	lsrs	r3, r3, #5
     888:	2001      	movs	r0, #1
     88a:	fa00 f202 	lsl.w	r2, r0, r2
     88e:	f841 2023 	str.w	r2, [r1, r3, lsl #2]
     892:	bf00      	nop
     894:	370c      	adds	r7, #12
     896:	46bd      	mov	sp, r7
     898:	f85d 7b04 	ldr.w	r7, [sp], #4
     89c:	4770      	bx	lr
     89e:	bf00      	nop
     8a0:	e100      	b.n	0xaa4
     8a2:	e000      	b.n	0x8a6
     8a4:	b580      	push	{r7, lr}
     8a6:	b082      	sub	sp, #8
     8a8:	af00      	add	r7, sp, #0
     8aa:	6078      	str	r0, [r7, #4]
     8ac:	6039      	str	r1, [r7, #0]
     8ae:	4b19      	ldr	r3, [pc, #100]	; (0x914)
     8b0:	f04f 32ff 	mov.w	r2, #4294967295	; 0xffffffff
     8b4:	f8c3 2508 	str.w	r2, [r3, #1288]	; 0x508
     8b8:	4b16      	ldr	r3, [pc, #88]	; (0x914)
     8ba:	f04f 32ff 	mov.w	r2, #4294967295	; 0xffffffff
     8be:	f8c3 2510 	str.w	r2, [r3, #1296]	; 0x510
     8c2:	4a14      	ldr	r2, [pc, #80]	; (0x914)
     8c4:	687b      	ldr	r3, [r7, #4]
     8c6:	f8c2 350c 	str.w	r3, [r2, #1292]	; 0x50c
     8ca:	4a12      	ldr	r2, [pc, #72]	; (0x914)
     8cc:	683b      	ldr	r3, [r7, #0]
     8ce:	f8c2 3514 	str.w	r3, [r2, #1300]	; 0x514
     8d2:	2201      	movs	r2, #1
     8d4:	687b      	ldr	r3, [r7, #4]
     8d6:	409a      	lsls	r2, r3
     8d8:	f04f 43a0 	mov.w	r3, #1342177280	; 0x50000000
     8dc:	f8c3 2518 	str.w	r2, [r3, #1304]	; 0x518
     8e0:	4b0c      	ldr	r3, [pc, #48]	; (0x914)
     8e2:	4a0d      	ldr	r2, [pc, #52]	; (0x918)
     8e4:	f8c3 2524 	str.w	r2, [r3, #1316]	; 0x524
     8e8:	4b0a      	ldr	r3, [pc, #40]	; (0x914)
     8ea:	2200      	movs	r2, #0
     8ec:	f8c3 256c 	str.w	r2, [r3, #1388]	; 0x56c
     8f0:	4b08      	ldr	r3, [pc, #32]	; (0x914)
     8f2:	2284      	movs	r2, #132	; 0x84
     8f4:	f8c3 2304 	str.w	r2, [r3, #772]	; 0x304
     8f8:	4b06      	ldr	r3, [pc, #24]	; (0x914)
     8fa:	2204      	movs	r2, #4
     8fc:	f8c3 2500 	str.w	r2, [r3, #1280]	; 0x500
     900:	2002      	movs	r0, #2
     902:	f7ff ffb5 	bl	0x870
     906:	4b03      	ldr	r3, [pc, #12]	; (0x914)
     908:	2201      	movs	r2, #1
     90a:	601a      	str	r2, [r3, #0]
     90c:	bf00      	nop
     90e:	3708      	adds	r7, #8
     910:	46bd      	mov	sp, r7
     912:	bd80      	pop	{r7, pc}
     914:	2000      	movs	r0, #0
     916:	4000      	ands	r0, r0
     918:	dfa4      	svc	164	; 0xa4
     91a:	0ebe      	lsrs	r6, r7, #26
     91c:	b480      	push	{r7}
     91e:	b085      	sub	sp, #20
     920:	af00      	add	r7, sp, #0
     922:	6078      	str	r0, [r7, #4]
     924:	6039      	str	r1, [r7, #0]
     926:	683b      	ldr	r3, [r7, #0]
     928:	2bff      	cmp	r3, #255	; 0xff
     92a:	dc4d      	bgt.n	0x9c8
     92c:	4b29      	ldr	r3, [pc, #164]	; (0x9d4)
     92e:	681b      	ldr	r3, [r3, #0]
     930:	60fb      	str	r3, [r7, #12]
     932:	2300      	movs	r3, #0
     934:	60bb      	str	r3, [r7, #8]
     936:	e021      	b.n	0x97c
     938:	68bb      	ldr	r3, [r7, #8]
     93a:	687a      	ldr	r2, [r7, #4]
     93c:	441a      	add	r2, r3
     93e:	68fb      	ldr	r3, [r7, #12]
     940:	1c59      	adds	r1, r3, #1
     942:	60f9      	str	r1, [r7, #12]
     944:	7811      	ldrb	r1, [r2, #0]
     946:	4a24      	ldr	r2, [pc, #144]	; (0x9d8)
     948:	54d1      	strb	r1, [r2, r3]
     94a:	68fb      	ldr	r3, [r7, #12]
     94c:	2bff      	cmp	r3, #255	; 0xff
     94e:	dd01      	ble.n	0x954
     950:	2300      	movs	r3, #0
     952:	60fb      	str	r3, [r7, #12]
     954:	4b21      	ldr	r3, [pc, #132]	; (0x9dc)
     956:	681b      	ldr	r3, [r3, #0]
     958:	68fa      	ldr	r2, [r7, #12]
     95a:	429a      	cmp	r2, r3
     95c:	d10b      	bne.n	0x976
     95e:	4b1f      	ldr	r3, [pc, #124]	; (0x9dc)
     960:	681b      	ldr	r3, [r3, #0]
     962:	3301      	adds	r3, #1
     964:	4a1d      	ldr	r2, [pc, #116]	; (0x9dc)
     966:	6013      	str	r3, [r2, #0]
     968:	4b1c      	ldr	r3, [pc, #112]	; (0x9dc)
     96a:	681b      	ldr	r3, [r3, #0]
     96c:	2bff      	cmp	r3, #255	; 0xff
     96e:	dd02      	ble.n	0x976
     970:	4b1a      	ldr	r3, [pc, #104]	; (0x9dc)
     972:	2200      	movs	r2, #0
     974:	601a      	str	r2, [r3, #0]
     976:	68bb      	ldr	r3, [r7, #8]
     978:	3301      	adds	r3, #1
     97a:	60bb      	str	r3, [r7, #8]
     97c:	68ba      	ldr	r2, [r7, #8]
     97e:	683b      	ldr	r3, [r7, #0]
     980:	429a      	cmp	r2, r3
     982:	dbd9      	blt.n	0x938
     984:	4a13      	ldr	r2, [pc, #76]	; (0x9d4)
     986:	68fb      	ldr	r3, [r7, #12]
     988:	6013      	str	r3, [r2, #0]
     98a:	4b15      	ldr	r3, [pc, #84]	; (0x9e0)
     98c:	781b      	ldrb	r3, [r3, #0]
     98e:	b2db      	uxtb	r3, r3
     990:	2b00      	cmp	r3, #0
     992:	d01a      	beq.n	0x9ca
     994:	4b11      	ldr	r3, [pc, #68]	; (0x9dc)
     996:	681b      	ldr	r3, [r3, #0]
     998:	4a0f      	ldr	r2, [pc, #60]	; (0x9d8)
     99a:	5cd2      	ldrb	r2, [r2, r3]
     99c:	4b11      	ldr	r3, [pc, #68]	; (0x9e4)
     99e:	f8c3 251c 	str.w	r2, [r3, #1308]	; 0x51c
     9a2:	4b0e      	ldr	r3, [pc, #56]	; (0x9dc)
     9a4:	681b      	ldr	r3, [r3, #0]
     9a6:	3301      	adds	r3, #1
     9a8:	4a0c      	ldr	r2, [pc, #48]	; (0x9dc)
     9aa:	6013      	str	r3, [r2, #0]
     9ac:	4b0b      	ldr	r3, [pc, #44]	; (0x9dc)
     9ae:	681b      	ldr	r3, [r3, #0]
     9b0:	2bff      	cmp	r3, #255	; 0xff
     9b2:	dd02      	ble.n	0x9ba
     9b4:	4b09      	ldr	r3, [pc, #36]	; (0x9dc)
     9b6:	2200      	movs	r2, #0
     9b8:	601a      	str	r2, [r3, #0]
     9ba:	4b0a      	ldr	r3, [pc, #40]	; (0x9e4)
     9bc:	2201      	movs	r2, #1
     9be:	609a      	str	r2, [r3, #8]
     9c0:	4b07      	ldr	r3, [pc, #28]	; (0x9e0)
     9c2:	2200      	movs	r2, #0
     9c4:	701a      	strb	r2, [r3, #0]
     9c6:	e000      	b.n	0x9ca
     9c8:	bf00      	nop
     9ca:	3714      	adds	r7, #20
     9cc:	46bd      	mov	sp, r7
     9ce:	f85d 7b04 	ldr.w	r7, [sp], #4
     9d2:	4770      	bx	lr
     9d4:	00b8      	lsls	r0, r7, #2
     9d6:	2000      	movs	r0, #0
     9d8:	02c8      	lsls	r0, r1, #11
     9da:	2000      	movs	r0, #0
     9dc:	00b4      	lsls	r4, r6, #2
     9de:	2000      	movs	r0, #0
     9e0:	0004      	movs	r4, r0
     9e2:	2000      	movs	r0, #0
     9e4:	2000      	movs	r0, #0
     9e6:	4000      	ands	r0, r0
     9e8:	b480      	push	{r7}
     9ea:	af00      	add	r7, sp, #0
     9ec:	4b23      	ldr	r3, [pc, #140]	; (0xa7c)
     9ee:	f8d3 311c 	ldr.w	r3, [r3, #284]	; 0x11c
     9f2:	2b00      	cmp	r3, #0
     9f4:	d01f      	beq.n	0xa36
     9f6:	4b21      	ldr	r3, [pc, #132]	; (0xa7c)
     9f8:	2200      	movs	r2, #0
     9fa:	f8c3 211c 	str.w	r2, [r3, #284]	; 0x11c
     9fe:	4b20      	ldr	r3, [pc, #128]	; (0xa80)
     a00:	681a      	ldr	r2, [r3, #0]
     a02:	4b20      	ldr	r3, [pc, #128]	; (0xa84)
     a04:	681b      	ldr	r3, [r3, #0]
     a06:	429a      	cmp	r2, r3
     a08:	d011      	beq.n	0xa2e
     a0a:	4b1e      	ldr	r3, [pc, #120]	; (0xa84)
     a0c:	681b      	ldr	r3, [r3, #0]
     a0e:	1c5a      	adds	r2, r3, #1
     a10:	491c      	ldr	r1, [pc, #112]	; (0xa84)
     a12:	600a      	str	r2, [r1, #0]
     a14:	4a1c      	ldr	r2, [pc, #112]	; (0xa88)
     a16:	5cd2      	ldrb	r2, [r2, r3]
     a18:	4b18      	ldr	r3, [pc, #96]	; (0xa7c)
     a1a:	f8c3 251c 	str.w	r2, [r3, #1308]	; 0x51c
     a1e:	4b19      	ldr	r3, [pc, #100]	; (0xa84)
     a20:	681b      	ldr	r3, [r3, #0]
     a22:	2bff      	cmp	r3, #255	; 0xff
     a24:	dd24      	ble.n	0xa70
     a26:	4b17      	ldr	r3, [pc, #92]	; (0xa84)
     a28:	2200      	movs	r2, #0
     a2a:	601a      	str	r2, [r3, #0]
     a2c:	e020      	b.n	0xa70
     a2e:	4b17      	ldr	r3, [pc, #92]	; (0xa8c)
     a30:	2201      	movs	r2, #1
     a32:	701a      	strb	r2, [r3, #0]
     a34:	e01c      	b.n	0xa70
     a36:	4b11      	ldr	r3, [pc, #68]	; (0xa7c)
     a38:	f8d3 3108 	ldr.w	r3, [r3, #264]	; 0x108
     a3c:	2b00      	cmp	r3, #0
     a3e:	d017      	beq.n	0xa70
     a40:	4b0e      	ldr	r3, [pc, #56]	; (0xa7c)
     a42:	2200      	movs	r2, #0
     a44:	f8c3 2108 	str.w	r2, [r3, #264]	; 0x108
     a48:	4b0c      	ldr	r3, [pc, #48]	; (0xa7c)
     a4a:	f8d3 0518 	ldr.w	r0, [r3, #1304]	; 0x518
     a4e:	4b10      	ldr	r3, [pc, #64]	; (0xa90)
     a50:	681b      	ldr	r3, [r3, #0]
     a52:	1c5a      	adds	r2, r3, #1
     a54:	490e      	ldr	r1, [pc, #56]	; (0xa90)
     a56:	600a      	str	r2, [r1, #0]
     a58:	b2c1      	uxtb	r1, r0
     a5a:	4a0e      	ldr	r2, [pc, #56]	; (0xa94)
     a5c:	54d1      	strb	r1, [r2, r3]
     a5e:	4b0c      	ldr	r3, [pc, #48]	; (0xa90)
     a60:	681a      	ldr	r2, [r3, #0]
     a62:	4b0d      	ldr	r3, [pc, #52]	; (0xa98)
     a64:	681b      	ldr	r3, [r3, #0]
     a66:	429a      	cmp	r2, r3
     a68:	d302      	bcc.n	0xa70
     a6a:	4b09      	ldr	r3, [pc, #36]	; (0xa90)
     a6c:	2200      	movs	r2, #0
     a6e:	601a      	str	r2, [r3, #0]
     a70:	bf00      	nop
     a72:	46bd      	mov	sp, r7
     a74:	f85d 7b04 	ldr.w	r7, [sp], #4
     a78:	4770      	bx	lr
     a7a:	bf00      	nop
     a7c:	2000      	movs	r0, #0
     a7e:	4000      	ands	r0, r0
     a80:	00b8      	lsls	r0, r7, #2
     a82:	2000      	movs	r0, #0
     a84:	00b4      	lsls	r4, r6, #2
     a86:	2000      	movs	r0, #0
     a88:	02c8      	lsls	r0, r1, #11
     a8a:	2000      	movs	r0, #0
     a8c:	0004      	movs	r4, r0
     a8e:	2000      	movs	r0, #0
     a90:	00b0      	lsls	r0, r6, #2
     a92:	2000      	movs	r0, #0
     a94:	01c8      	lsls	r0, r1, #7
     a96:	2000      	movs	r0, #0
     a98:	0000      	movs	r0, r0
     a9a:	2000      	movs	r0, #0
     a9c:	4906      	ldr	r1, [pc, #24]	; (0xab8)
     a9e:	4a07      	ldr	r2, [pc, #28]	; (0xabc)
     aa0:	4b07      	ldr	r3, [pc, #28]	; (0xac0)
     aa2:	1a9b      	subs	r3, r3, r2
     aa4:	dd03      	ble.n	0xaae
     aa6:	3b04      	subs	r3, #4
     aa8:	58c8      	ldr	r0, [r1, r3]
     aaa:	50d0      	str	r0, [r2, r3]
     aac:	dcfb      	bgt.n	0xaa6
     aae:	f000 f835 	bl	0xb1c
     ab2:	f7ff fbc5 	bl	0x240
     ab6:	0000      	movs	r0, r0
     ab8:	1bd8      	subs	r0, r3, r7
     aba:	0000      	movs	r0, r0
     abc:	0000      	movs	r0, r0
     abe:	2000      	movs	r0, #0
     ac0:	0078      	lsls	r0, r7, #1
     ac2:	2000      	movs	r0, #0
     ac4:	e7fe      	b.n	0xac4
     ac6:	e7fe      	b.n	0xac6
     ac8:	e7fe      	b.n	0xac8
     aca:	e7fe      	b.n	0xaca
     acc:	e7fe      	b.n	0xacc
     ace:	e7fe      	b.n	0xace
     ad0:	e7fe      	b.n	0xad0
     ad2:	e7fe      	b.n	0xad2
     ad4:	e7fe      	b.n	0xad4
     ad6:	e7fe      	b.n	0xad6
     ad8:	b480      	push	{r7}
     ada:	af00      	add	r7, sp, #0
     adc:	f3bf 8f4f 	dsb	sy
     ae0:	4b05      	ldr	r3, [pc, #20]	; (0xaf8)
     ae2:	68db      	ldr	r3, [r3, #12]
     ae4:	f403 62e0 	and.w	r2, r3, #1792	; 0x700
     ae8:	4903      	ldr	r1, [pc, #12]	; (0xaf8)
     aea:	4b04      	ldr	r3, [pc, #16]	; (0xafc)
     aec:	4313      	orrs	r3, r2
     aee:	60cb      	str	r3, [r1, #12]
     af0:	f3bf 8f4f 	dsb	sy
     af4:	bf00      	nop
     af6:	e7fd      	b.n	0xaf4
     af8:	ed00 e000 	stc	0, cr14, [r0, #-0]
     afc:	0004      	movs	r4, r0
     afe:	05fa      	lsls	r2, r7, #23
     b00:	b480      	push	{r7}
     b02:	af00      	add	r7, sp, #0
     b04:	4b03      	ldr	r3, [pc, #12]	; (0xb14)
     b06:	4a04      	ldr	r2, [pc, #16]	; (0xb18)
     b08:	601a      	str	r2, [r3, #0]
     b0a:	bf00      	nop
     b0c:	46bd      	mov	sp, r7
     b0e:	f85d 7b04 	ldr.w	r7, [sp], #4
     b12:	4770      	bx	lr
     b14:	0008      	movs	r0, r1
     b16:	2000      	movs	r0, #0
     b18:	9000      	str	r0, [sp, #0]
     b1a:	03d0      	lsls	r0, r2, #15
     b1c:	b580      	push	{r7, lr}
     b1e:	af00      	add	r7, sp, #0
     b20:	f000 f95a 	bl	0xdd8
     b24:	4603      	mov	r3, r0
     b26:	2b00      	cmp	r3, #0
     b28:	d006      	beq.n	0xb38
     b2a:	4b9a      	ldr	r3, [pc, #616]	; (0xd94)
     b2c:	681b      	ldr	r3, [r3, #0]
     b2e:	0a1b      	lsrs	r3, r3, #8
     b30:	4a99      	ldr	r2, [pc, #612]	; (0xd98)
     b32:	f003 031f 	and.w	r3, r3, #31
     b36:	6013      	str	r3, [r2, #0]
     b38:	f000 f980 	bl	0xe3c
     b3c:	4603      	mov	r3, r0
     b3e:	2b00      	cmp	r3, #0
     b40:	d002      	beq.n	0xb48
     b42:	4b96      	ldr	r3, [pc, #600]	; (0xd9c)
     b44:	4a96      	ldr	r2, [pc, #600]	; (0xda0)
     b46:	601a      	str	r2, [r3, #0]
     b48:	f000 f99a 	bl	0xe80
     b4c:	4603      	mov	r3, r0
     b4e:	2b00      	cmp	r3, #0
     b50:	d006      	beq.n	0xb60
     b52:	4b94      	ldr	r3, [pc, #592]	; (0xda4)
     b54:	681b      	ldr	r3, [r3, #0]
     b56:	0b5b      	lsrs	r3, r3, #13
     b58:	4a93      	ldr	r2, [pc, #588]	; (0xda8)
     b5a:	f003 0307 	and.w	r3, r3, #7
     b5e:	6013      	str	r3, [r2, #0]
     b60:	f000 f9c0 	bl	0xee4
     b64:	4603      	mov	r3, r0
     b66:	2b00      	cmp	r3, #0
     b68:	d005      	beq.n	0xb76
     b6a:	4b90      	ldr	r3, [pc, #576]	; (0xdac)
     b6c:	68db      	ldr	r3, [r3, #12]
     b6e:	4a8f      	ldr	r2, [pc, #572]	; (0xdac)
     b70:	f023 7380 	bic.w	r3, r3, #16777216	; 0x1000000
     b74:	60d3      	str	r3, [r2, #12]
     b76:	f000 f9d7 	bl	0xf28
     b7a:	4603      	mov	r3, r0
     b7c:	2b00      	cmp	r3, #0
     b7e:	d00e      	beq.n	0xb9e
     b80:	f04f 4380 	mov.w	r3, #1073741824	; 0x40000000
     b84:	2200      	movs	r2, #0
     b86:	f8c3 210c 	str.w	r2, [r3, #268]	; 0x10c
     b8a:	f04f 4380 	mov.w	r3, #1073741824	; 0x40000000
     b8e:	2200      	movs	r2, #0
     b90:	f8c3 2110 	str.w	r2, [r3, #272]	; 0x110
     b94:	f04f 4380 	mov.w	r3, #1073741824	; 0x40000000
     b98:	2200      	movs	r2, #0
     b9a:	f8c3 2538 	str.w	r2, [r3, #1336]	; 0x538
     b9e:	f000 f9f5 	bl	0xf8c
     ba2:	4603      	mov	r3, r0
     ba4:	2b00      	cmp	r3, #0
     ba6:	d002      	beq.n	0xbae
     ba8:	4b81      	ldr	r3, [pc, #516]	; (0xdb0)
     baa:	2203      	movs	r2, #3
     bac:	601a      	str	r2, [r3, #0]
     bae:	f000 fa0f 	bl	0xfd0
     bb2:	4603      	mov	r3, r0
     bb4:	2b00      	cmp	r3, #0
     bb6:	d00b      	beq.n	0xbd0
     bb8:	4b7e      	ldr	r3, [pc, #504]	; (0xdb4)
     bba:	2205      	movs	r2, #5
     bbc:	601a      	str	r2, [r3, #0]
     bbe:	4b7e      	ldr	r3, [pc, #504]	; (0xdb8)
     bc0:	2201      	movs	r2, #1
     bc2:	601a      	str	r2, [r3, #0]
     bc4:	4b7d      	ldr	r3, [pc, #500]	; (0xdbc)
     bc6:	2200      	movs	r2, #0
     bc8:	601a      	str	r2, [r3, #0]
     bca:	4b7d      	ldr	r3, [pc, #500]	; (0xdc0)
     bcc:	223f      	movs	r2, #63	; 0x3f
     bce:	601a      	str	r2, [r3, #0]
     bd0:	f000 fa20 	bl	0x1014
     bd4:	4603      	mov	r3, r0
     bd6:	2b00      	cmp	r3, #0
     bd8:	d076      	beq.n	0xcc8
     bda:	f04f 5380 	mov.w	r3, #268435456	; 0x10000000
     bde:	4a79      	ldr	r2, [pc, #484]	; (0xdc4)
     be0:	f8d3 3404 	ldr.w	r3, [r3, #1028]	; 0x404
     be4:	f8c2 3520 	str.w	r3, [r2, #1312]	; 0x520
     be8:	f04f 5380 	mov.w	r3, #268435456	; 0x10000000
     bec:	4a75      	ldr	r2, [pc, #468]	; (0xdc4)
     bee:	f8d3 3408 	ldr.w	r3, [r3, #1032]	; 0x408
     bf2:	f8c2 3524 	str.w	r3, [r2, #1316]	; 0x524
     bf6:	f04f 5380 	mov.w	r3, #268435456	; 0x10000000
     bfa:	4a72      	ldr	r2, [pc, #456]	; (0xdc4)
     bfc:	f8d3 340c 	ldr.w	r3, [r3, #1036]	; 0x40c
     c00:	f8c2 3528 	str.w	r3, [r2, #1320]	; 0x528
     c04:	f04f 5380 	mov.w	r3, #268435456	; 0x10000000
     c08:	4a6e      	ldr	r2, [pc, #440]	; (0xdc4)
     c0a:	f8d3 3410 	ldr.w	r3, [r3, #1040]	; 0x410
     c0e:	f8c2 352c 	str.w	r3, [r2, #1324]	; 0x52c
     c12:	f04f 5380 	mov.w	r3, #268435456	; 0x10000000
     c16:	4a6b      	ldr	r2, [pc, #428]	; (0xdc4)
     c18:	f8d3 3414 	ldr.w	r3, [r3, #1044]	; 0x414
     c1c:	f8c2 3530 	str.w	r3, [r2, #1328]	; 0x530
     c20:	f04f 5380 	mov.w	r3, #268435456	; 0x10000000
     c24:	4a67      	ldr	r2, [pc, #412]	; (0xdc4)
     c26:	f8d3 3418 	ldr.w	r3, [r3, #1048]	; 0x418
     c2a:	f8c2 3534 	str.w	r3, [r2, #1332]	; 0x534
     c2e:	f04f 5380 	mov.w	r3, #268435456	; 0x10000000
     c32:	4a64      	ldr	r2, [pc, #400]	; (0xdc4)
     c34:	f8d3 341c 	ldr.w	r3, [r3, #1052]	; 0x41c
     c38:	f8c2 3540 	str.w	r3, [r2, #1344]	; 0x540
     c3c:	f04f 5380 	mov.w	r3, #268435456	; 0x10000000
     c40:	4a60      	ldr	r2, [pc, #384]	; (0xdc4)
     c42:	f8d3 3420 	ldr.w	r3, [r3, #1056]	; 0x420
     c46:	f8c2 3544 	str.w	r3, [r2, #1348]	; 0x544
     c4a:	f04f 5380 	mov.w	r3, #268435456	; 0x10000000
     c4e:	4a5d      	ldr	r2, [pc, #372]	; (0xdc4)
     c50:	f8d3 3424 	ldr.w	r3, [r3, #1060]	; 0x424
     c54:	f8c2 3548 	str.w	r3, [r2, #1352]	; 0x548
     c58:	f04f 5380 	mov.w	r3, #268435456	; 0x10000000
     c5c:	4a59      	ldr	r2, [pc, #356]	; (0xdc4)
     c5e:	f8d3 3428 	ldr.w	r3, [r3, #1064]	; 0x428
     c62:	f8c2 354c 	str.w	r3, [r2, #1356]	; 0x54c
     c66:	f04f 5380 	mov.w	r3, #268435456	; 0x10000000
     c6a:	4a56      	ldr	r2, [pc, #344]	; (0xdc4)
     c6c:	f8d3 342c 	ldr.w	r3, [r3, #1068]	; 0x42c
     c70:	f8c2 3550 	str.w	r3, [r2, #1360]	; 0x550
     c74:	f04f 5380 	mov.w	r3, #268435456	; 0x10000000
     c78:	4a52      	ldr	r2, [pc, #328]	; (0xdc4)
     c7a:	f8d3 3430 	ldr.w	r3, [r3, #1072]	; 0x430
     c7e:	f8c2 3554 	str.w	r3, [r2, #1364]	; 0x554
     c82:	f04f 5380 	mov.w	r3, #268435456	; 0x10000000
     c86:	4a4f      	ldr	r2, [pc, #316]	; (0xdc4)
     c88:	f8d3 3434 	ldr.w	r3, [r3, #1076]	; 0x434
     c8c:	f8c2 3560 	str.w	r3, [r2, #1376]	; 0x560
     c90:	f04f 5380 	mov.w	r3, #268435456	; 0x10000000
     c94:	4a4b      	ldr	r2, [pc, #300]	; (0xdc4)
     c96:	f8d3 3438 	ldr.w	r3, [r3, #1080]	; 0x438
     c9a:	f8c2 3564 	str.w	r3, [r2, #1380]	; 0x564
     c9e:	f04f 5380 	mov.w	r3, #268435456	; 0x10000000
     ca2:	4a48      	ldr	r2, [pc, #288]	; (0xdc4)
     ca4:	f8d3 343c 	ldr.w	r3, [r3, #1084]	; 0x43c
     ca8:	f8c2 3568 	str.w	r3, [r2, #1384]	; 0x568
     cac:	f04f 5380 	mov.w	r3, #268435456	; 0x10000000
     cb0:	4a44      	ldr	r2, [pc, #272]	; (0xdc4)
     cb2:	f8d3 3440 	ldr.w	r3, [r3, #1088]	; 0x440
     cb6:	f8c2 356c 	str.w	r3, [r2, #1388]	; 0x56c
     cba:	f04f 5380 	mov.w	r3, #268435456	; 0x10000000
     cbe:	4a41      	ldr	r2, [pc, #260]	; (0xdc4)
     cc0:	f8d3 3444 	ldr.w	r3, [r3, #1092]	; 0x444
     cc4:	f8c2 3570 	str.w	r3, [r2, #1392]	; 0x570
     cc8:	f000 f9c6 	bl	0x1058
     ccc:	4603      	mov	r3, r0
     cce:	2b00      	cmp	r3, #0
     cd0:	d005      	beq.n	0xcde
     cd2:	4b3d      	ldr	r3, [pc, #244]	; (0xdc8)
     cd4:	681b      	ldr	r3, [r3, #0]
     cd6:	4a3d      	ldr	r2, [pc, #244]	; (0xdcc)
     cd8:	f003 034f 	and.w	r3, r3, #79	; 0x4f
     cdc:	6013      	str	r3, [r2, #0]
     cde:	f000 f9ed 	bl	0x10bc
     ce2:	4603      	mov	r3, r0
     ce4:	2b00      	cmp	r3, #0
     ce6:	d00d      	beq.n	0xd04
     ce8:	f04f 4380 	mov.w	r3, #1073741824	; 0x40000000
     cec:	f8d3 3400 	ldr.w	r3, [r3, #1024]	; 0x400
     cf0:	f003 0301 	and.w	r3, r3, #1
     cf4:	2b00      	cmp	r3, #0
     cf6:	d005      	beq.n	0xd04
     cf8:	f04f 4380 	mov.w	r3, #1073741824	; 0x40000000
     cfc:	f06f 0201 	mvn.w	r2, #1
     d00:	f8c3 2400 	str.w	r2, [r3, #1024]	; 0x400
     d04:	4b32      	ldr	r3, [pc, #200]	; (0xdd0)
     d06:	f8d3 3088 	ldr.w	r3, [r3, #136]	; 0x88
     d0a:	4a31      	ldr	r2, [pc, #196]	; (0xdd0)
     d0c:	f443 0370 	orr.w	r3, r3, #15728640	; 0xf00000
     d10:	f8c2 3088 	str.w	r3, [r2, #136]	; 0x88
     d14:	f3bf 8f4f 	dsb	sy
     d18:	f3bf 8f6f 	isb	sy
     d1c:	f04f 2310 	mov.w	r3, #268439552	; 0x10001000
     d20:	f8d3 3200 	ldr.w	r3, [r3, #512]	; 0x200
     d24:	2b00      	cmp	r3, #0
     d26:	db05      	blt.n	0xd34
     d28:	f04f 2310 	mov.w	r3, #268439552	; 0x10001000
     d2c:	f8d3 3204 	ldr.w	r3, [r3, #516]	; 0x204
     d30:	2b00      	cmp	r3, #0
     d32:	da2b      	bge.n	0xd8c
     d34:	4b27      	ldr	r3, [pc, #156]	; (0xdd4)
     d36:	2201      	movs	r2, #1
     d38:	f8c3 2504 	str.w	r2, [r3, #1284]	; 0x504
     d3c:	bf00      	nop
     d3e:	4b25      	ldr	r3, [pc, #148]	; (0xdd4)
     d40:	f8d3 3400 	ldr.w	r3, [r3, #1024]	; 0x400
     d44:	2b00      	cmp	r3, #0
     d46:	d0fa      	beq.n	0xd3e
     d48:	f04f 2310 	mov.w	r3, #268439552	; 0x10001000
     d4c:	2215      	movs	r2, #21
     d4e:	f8c3 2200 	str.w	r2, [r3, #512]	; 0x200
     d52:	bf00      	nop
     d54:	4b1f      	ldr	r3, [pc, #124]	; (0xdd4)
     d56:	f8d3 3400 	ldr.w	r3, [r3, #1024]	; 0x400
     d5a:	2b00      	cmp	r3, #0
     d5c:	d0fa      	beq.n	0xd54
     d5e:	f04f 2310 	mov.w	r3, #268439552	; 0x10001000
     d62:	2215      	movs	r2, #21
     d64:	f8c3 2204 	str.w	r2, [r3, #516]	; 0x204
     d68:	bf00      	nop
     d6a:	4b1a      	ldr	r3, [pc, #104]	; (0xdd4)
     d6c:	f8d3 3400 	ldr.w	r3, [r3, #1024]	; 0x400
     d70:	2b00      	cmp	r3, #0
     d72:	d0fa      	beq.n	0xd6a
     d74:	4b17      	ldr	r3, [pc, #92]	; (0xdd4)
     d76:	2200      	movs	r2, #0
     d78:	f8c3 2504 	str.w	r2, [r3, #1284]	; 0x504
     d7c:	bf00      	nop
     d7e:	4b15      	ldr	r3, [pc, #84]	; (0xdd4)
     d80:	f8d3 3400 	ldr.w	r3, [r3, #1024]	; 0x400
     d84:	2b00      	cmp	r3, #0
     d86:	d0fa      	beq.n	0xd7e
     d88:	f7ff fea6 	bl	0xad8
     d8c:	f7ff feb8 	bl	0xb00
     d90:	bf00      	nop
     d92:	bd80      	pop	{r7, pc}
     d94:	0324      	lsls	r4, r4, #12
     d96:	1000      	asrs	r0, r0, #32
     d98:	3540      	adds	r5, #64	; 0x40
     d9a:	4001      	ands	r1, r0
     d9c:	c074      	stmia	r0!, {r2, r4, r5, r6}
     d9e:	4007      	ands	r7, r0
     da0:	f00d baad 	b.w	0xe2fe
     da4:	0244      	lsls	r4, r0, #9
     da6:	1000      	asrs	r0, r0, #32
     da8:	053c      	lsls	r4, r7, #20
     daa:	4000      	ands	r0, r0
     dac:	edf0 e000 	ldcl	0, cr14, [r0]
     db0:	05a0      	lsls	r0, r4, #22
     db2:	4000      	ands	r0, r0
     db4:	5610      	ldrsb	r0, [r2, r0]
     db6:	4000      	ands	r0, r0
     db8:	5688      	ldrsb	r0, [r1, r2]
     dba:	4000      	ands	r0, r0
     dbc:	5618      	ldrsb	r0, [r3, r0]
     dbe:	4000      	ands	r0, r0
     dc0:	5614      	ldrsb	r4, [r2, r0]
     dc2:	4000      	ands	r0, r0
     dc4:	c000      	stmia	r0!, {}
     dc6:	4000      	ands	r0, r0
     dc8:	0258      	lsls	r0, r3, #9
     dca:	1000      	asrs	r0, r0, #32
     dcc:	0ee4      	lsrs	r4, r4, #27
     dce:	4000      	ands	r0, r0
     dd0:	ed00 e000 	stc	0, cr14, [r0, #-0]
     dd4:	e000      	b.n	0xdd8
     dd6:	4001      	ands	r1, r0
     dd8:	b480      	push	{r7}
     dda:	af00      	add	r7, sp, #0
     ddc:	4b14      	ldr	r3, [pc, #80]	; (0xe30)
     dde:	681b      	ldr	r3, [r3, #0]
     de0:	b2db      	uxtb	r3, r3
     de2:	2b06      	cmp	r3, #6
     de4:	d11d      	bne.n	0xe22
     de6:	4b13      	ldr	r3, [pc, #76]	; (0xe34)
     de8:	681b      	ldr	r3, [r3, #0]
     dea:	f003 030f 	and.w	r3, r3, #15
     dee:	2b00      	cmp	r3, #0
     df0:	d117      	bne.n	0xe22
     df2:	4b11      	ldr	r3, [pc, #68]	; (0xe38)
     df4:	681b      	ldr	r3, [r3, #0]
     df6:	f003 03f0 	and.w	r3, r3, #240	; 0xf0
     dfa:	2b30      	cmp	r3, #48	; 0x30
     dfc:	d101      	bne.n	0xe02
     dfe:	2301      	movs	r3, #1
     e00:	e010      	b.n	0xe24
     e02:	4b0d      	ldr	r3, [pc, #52]	; (0xe38)
     e04:	681b      	ldr	r3, [r3, #0]
     e06:	f003 03f0 	and.w	r3, r3, #240	; 0xf0
     e0a:	2b40      	cmp	r3, #64	; 0x40
     e0c:	d101      	bne.n	0xe12
     e0e:	2301      	movs	r3, #1
     e10:	e008      	b.n	0xe24
     e12:	4b09      	ldr	r3, [pc, #36]	; (0xe38)
     e14:	681b      	ldr	r3, [r3, #0]
     e16:	f003 03f0 	and.w	r3, r3, #240	; 0xf0
     e1a:	2b50      	cmp	r3, #80	; 0x50
     e1c:	d101      	bne.n	0xe22
     e1e:	2301      	movs	r3, #1
     e20:	e000      	b.n	0xe24
     e22:	2300      	movs	r3, #0
     e24:	4618      	mov	r0, r3
     e26:	46bd      	mov	sp, r7
     e28:	f85d 7b04 	ldr.w	r7, [sp], #4
     e2c:	4770      	bx	lr
     e2e:	bf00      	nop
     e30:	0fe0      	lsrs	r0, r4, #31
     e32:	f000 0fe4 	and.w	pc, r0, #228	; 0xe4
     e36:	f000 0fe8 	and.w	pc, r0, #232	; 0xe8
     e3a:	f000 b480 	b.w	0x40173e
     e3e:	af00      	add	r7, sp, #0
     e40:	4b0c      	ldr	r3, [pc, #48]	; (0xe74)
     e42:	681b      	ldr	r3, [r3, #0]
     e44:	b2db      	uxtb	r3, r3
     e46:	2b06      	cmp	r3, #6
     e48:	d10d      	bne.n	0xe66
     e4a:	4b0b      	ldr	r3, [pc, #44]	; (0xe78)
     e4c:	681b      	ldr	r3, [r3, #0]
     e4e:	f003 030f 	and.w	r3, r3, #15
     e52:	2b00      	cmp	r3, #0
     e54:	d107      	bne.n	0xe66
     e56:	4b09      	ldr	r3, [pc, #36]	; (0xe7c)
     e58:	681b      	ldr	r3, [r3, #0]
     e5a:	f003 03f0 	and.w	r3, r3, #240	; 0xf0
     e5e:	2b30      	cmp	r3, #48	; 0x30
     e60:	d101      	bne.n	0xe66
     e62:	2301      	movs	r3, #1
     e64:	e000      	b.n	0xe68
     e66:	2300      	movs	r3, #0
     e68:	4618      	mov	r0, r3
     e6a:	46bd      	mov	sp, r7
     e6c:	f85d 7b04 	ldr.w	r7, [sp], #4
     e70:	4770      	bx	lr
     e72:	bf00      	nop
     e74:	0fe0      	lsrs	r0, r4, #31
     e76:	f000 0fe4 	and.w	pc, r0, #228	; 0xe4
     e7a:	f000 0fe8 	and.w	pc, r0, #232	; 0xe8
     e7e:	f000 b480 	b.w	0x401782
     e82:	af00      	add	r7, sp, #0
     e84:	4b14      	ldr	r3, [pc, #80]	; (0xed8)
     e86:	681b      	ldr	r3, [r3, #0]
     e88:	b2db      	uxtb	r3, r3
     e8a:	2b06      	cmp	r3, #6
     e8c:	d11d      	bne.n	0xeca
     e8e:	4b13      	ldr	r3, [pc, #76]	; (0xedc)
     e90:	681b      	ldr	r3, [r3, #0]
     e92:	f003 030f 	and.w	r3, r3, #15
     e96:	2b00      	cmp	r3, #0
     e98:	d117      	bne.n	0xeca
     e9a:	4b11      	ldr	r3, [pc, #68]	; (0xee0)
     e9c:	681b      	ldr	r3, [r3, #0]
     e9e:	f003 03f0 	and.w	r3, r3, #240	; 0xf0
     ea2:	2b30      	cmp	r3, #48	; 0x30
     ea4:	d101      	bne.n	0xeaa
     ea6:	2301      	movs	r3, #1
     ea8:	e010      	b.n	0xecc
     eaa:	4b0d      	ldr	r3, [pc, #52]	; (0xee0)
     eac:	681b      	ldr	r3, [r3, #0]
     eae:	f003 03f0 	and.w	r3, r3, #240	; 0xf0
     eb2:	2b40      	cmp	r3, #64	; 0x40
     eb4:	d101      	bne.n	0xeba
     eb6:	2301      	movs	r3, #1
     eb8:	e008      	b.n	0xecc
     eba:	4b09      	ldr	r3, [pc, #36]	; (0xee0)
     ebc:	681b      	ldr	r3, [r3, #0]
     ebe:	f003 03f0 	and.w	r3, r3, #240	; 0xf0
     ec2:	2b50      	cmp	r3, #80	; 0x50
     ec4:	d101      	bne.n	0xeca
     ec6:	2301      	movs	r3, #1
     ec8:	e000      	b.n	0xecc
     eca:	2300      	movs	r3, #0
     ecc:	4618      	mov	r0, r3
     ece:	46bd      	mov	sp, r7
     ed0:	f85d 7b04 	ldr.w	r7, [sp], #4
     ed4:	4770      	bx	lr
     ed6:	bf00      	nop
     ed8:	0fe0      	lsrs	r0, r4, #31
     eda:	f000 0fe4 	and.w	pc, r0, #228	; 0xe4
     ede:	f000 0fe8 	and.w	pc, r0, #232	; 0xe8
     ee2:	f000 b480 	b.w	0x4017e6
     ee6:	af00      	add	r7, sp, #0
     ee8:	4b0c      	ldr	r3, [pc, #48]	; (0xf1c)
     eea:	681b      	ldr	r3, [r3, #0]
     eec:	b2db      	uxtb	r3, r3
     eee:	2b06      	cmp	r3, #6
     ef0:	d10d      	bne.n	0xf0e
     ef2:	4b0b      	ldr	r3, [pc, #44]	; (0xf20)
     ef4:	681b      	ldr	r3, [r3, #0]
     ef6:	f003 030f 	and.w	r3, r3, #15
     efa:	2b00      	cmp	r3, #0
     efc:	d107      	bne.n	0xf0e
     efe:	4b09      	ldr	r3, [pc, #36]	; (0xf24)
     f00:	681b      	ldr	r3, [r3, #0]
     f02:	f003 03f0 	and.w	r3, r3, #240	; 0xf0
     f06:	2b30      	cmp	r3, #48	; 0x30
     f08:	d101      	bne.n	0xf0e
     f0a:	2301      	movs	r3, #1
     f0c:	e000      	b.n	0xf10
     f0e:	2300      	movs	r3, #0
     f10:	4618      	mov	r0, r3
     f12:	46bd      	mov	sp, r7
     f14:	f85d 7b04 	ldr.w	r7, [sp], #4
     f18:	4770      	bx	lr
     f1a:	bf00      	nop
     f1c:	0fe0      	lsrs	r0, r4, #31
     f1e:	f000 0fe4 	and.w	pc, r0, #228	; 0xe4
     f22:	f000 0fe8 	and.w	pc, r0, #232	; 0xe8
     f26:	f000 b480 	b.w	0x40182a
     f2a:	af00      	add	r7, sp, #0
     f2c:	4b14      	ldr	r3, [pc, #80]	; (0xf80)
     f2e:	681b      	ldr	r3, [r3, #0]
     f30:	b2db      	uxtb	r3, r3
     f32:	2b06      	cmp	r3, #6
     f34:	d11d      	bne.n	0xf72
     f36:	4b13      	ldr	r3, [pc, #76]	; (0xf84)
     f38:	681b      	ldr	r3, [r3, #0]
     f3a:	f003 030f 	and.w	r3, r3, #15
     f3e:	2b00      	cmp	r3, #0
     f40:	d117      	bne.n	0xf72
     f42:	4b11      	ldr	r3, [pc, #68]	; (0xf88)
     f44:	681b      	ldr	r3, [r3, #0]
     f46:	f003 03f0 	and.w	r3, r3, #240	; 0xf0
     f4a:	2b30      	cmp	r3, #48	; 0x30
     f4c:	d101      	bne.n	0xf52
     f4e:	2301      	movs	r3, #1
     f50:	e010      	b.n	0xf74
     f52:	4b0d      	ldr	r3, [pc, #52]	; (0xf88)
     f54:	681b      	ldr	r3, [r3, #0]
     f56:	f003 03f0 	and.w	r3, r3, #240	; 0xf0
     f5a:	2b40      	cmp	r3, #64	; 0x40
     f5c:	d101      	bne.n	0xf62
     f5e:	2301      	movs	r3, #1
     f60:	e008      	b.n	0xf74
     f62:	4b09      	ldr	r3, [pc, #36]	; (0xf88)
     f64:	681b      	ldr	r3, [r3, #0]
     f66:	f003 03f0 	and.w	r3, r3, #240	; 0xf0
     f6a:	2b50      	cmp	r3, #80	; 0x50
     f6c:	d101      	bne.n	0xf72
     f6e:	2301      	movs	r3, #1
     f70:	e000      	b.n	0xf74
     f72:	2300      	movs	r3, #0
     f74:	4618      	mov	r0, r3
     f76:	46bd      	mov	sp, r7
     f78:	f85d 7b04 	ldr.w	r7, [sp], #4
     f7c:	4770      	bx	lr
     f7e:	bf00      	nop
     f80:	0fe0      	lsrs	r0, r4, #31
     f82:	f000 0fe4 	and.w	pc, r0, #228	; 0xe4
     f86:	f000 0fe8 	and.w	pc, r0, #232	; 0xe8
     f8a:	f000 b480 	b.w	0x40188e
     f8e:	af00      	add	r7, sp, #0
     f90:	4b0c      	ldr	r3, [pc, #48]	; (0xfc4)
     f92:	681b      	ldr	r3, [r3, #0]
     f94:	b2db      	uxtb	r3, r3
     f96:	2b06      	cmp	r3, #6
     f98:	d10d      	bne.n	0xfb6
     f9a:	4b0b      	ldr	r3, [pc, #44]	; (0xfc8)
     f9c:	681b      	ldr	r3, [r3, #0]
     f9e:	f003 030f 	and.w	r3, r3, #15
     fa2:	2b00      	cmp	r3, #0
     fa4:	d107      	bne.n	0xfb6
     fa6:	4b09      	ldr	r3, [pc, #36]	; (0xfcc)
     fa8:	681b      	ldr	r3, [r3, #0]
     faa:	f003 03f0 	and.w	r3, r3, #240	; 0xf0
     fae:	2b30      	cmp	r3, #48	; 0x30
     fb0:	d101      	bne.n	0xfb6
     fb2:	2301      	movs	r3, #1
     fb4:	e000      	b.n	0xfb8
     fb6:	2300      	movs	r3, #0
     fb8:	4618      	mov	r0, r3
     fba:	46bd      	mov	sp, r7
     fbc:	f85d 7b04 	ldr.w	r7, [sp], #4
     fc0:	4770      	bx	lr
     fc2:	bf00      	nop
     fc4:	0fe0      	lsrs	r0, r4, #31
     fc6:	f000 0fe4 	and.w	pc, r0, #228	; 0xe4
     fca:	f000 0fe8 	and.w	pc, r0, #232	; 0xe8
     fce:	f000 b480 	b.w	0x4018d2
     fd2:	af00      	add	r7, sp, #0
     fd4:	4b0c      	ldr	r3, [pc, #48]	; (0x1008)
     fd6:	681b      	ldr	r3, [r3, #0]
     fd8:	b2db      	uxtb	r3, r3
     fda:	2b06      	cmp	r3, #6
     fdc:	d10d      	bne.n	0xffa
     fde:	4b0b      	ldr	r3, [pc, #44]	; (0x100c)
     fe0:	681b      	ldr	r3, [r3, #0]
     fe2:	f003 030f 	and.w	r3, r3, #15
     fe6:	2b00      	cmp	r3, #0
     fe8:	d107      	bne.n	0xffa
     fea:	4b09      	ldr	r3, [pc, #36]	; (0x1010)
     fec:	681b      	ldr	r3, [r3, #0]
     fee:	f003 03f0 	and.w	r3, r3, #240	; 0xf0
     ff2:	2b30      	cmp	r3, #48	; 0x30
     ff4:	d101      	bne.n	0xffa
     ff6:	2301      	movs	r3, #1
     ff8:	e000      	b.n	0xffc
     ffa:	2300      	movs	r3, #0
     ffc:	4618      	mov	r0, r3
     ffe:	46bd      	mov	sp, r7
    1000:	f85d 7b04 	ldr.w	r7, [sp], #4
    1004:	4770      	bx	lr
    1006:	bf00      	nop
    1008:	0fe0      	lsrs	r0, r4, #31
    100a:	f000 0fe4 	and.w	pc, r0, #228	; 0xe4
    100e:	f000 0fe8 	and.w	pc, r0, #232	; 0xe8
    1012:	f000 b480 	b.w	0x401916
    1016:	af00      	add	r7, sp, #0
    1018:	4b0c      	ldr	r3, [pc, #48]	; (0x104c)
    101a:	681b      	ldr	r3, [r3, #0]
    101c:	b2db      	uxtb	r3, r3
    101e:	2b06      	cmp	r3, #6
    1020:	d10d      	bne.n	0x103e
    1022:	4b0b      	ldr	r3, [pc, #44]	; (0x1050)
    1024:	681b      	ldr	r3, [r3, #0]
    1026:	f003 030f 	and.w	r3, r3, #15
    102a:	2b00      	cmp	r3, #0
    102c:	d107      	bne.n	0x103e
    102e:	4b09      	ldr	r3, [pc, #36]	; (0x1054)
    1030:	681b      	ldr	r3, [r3, #0]
    1032:	f003 03f0 	and.w	r3, r3, #240	; 0xf0
    1036:	2b50      	cmp	r3, #80	; 0x50
    1038:	d101      	bne.n	0x103e
    103a:	2301      	movs	r3, #1
    103c:	e000      	b.n	0x1040
    103e:	2300      	movs	r3, #0
    1040:	4618      	mov	r0, r3
    1042:	46bd      	mov	sp, r7
    1044:	f85d 7b04 	ldr.w	r7, [sp], #4
    1048:	4770      	bx	lr
    104a:	bf00      	nop
    104c:	0fe0      	lsrs	r0, r4, #31
    104e:	f000 0fe4 	and.w	pc, r0, #228	; 0xe4
    1052:	f000 0fe8 	and.w	pc, r0, #232	; 0xe8
    1056:	f000 b480 	b.w	0x40195a
    105a:	af00      	add	r7, sp, #0
    105c:	4b14      	ldr	r3, [pc, #80]	; (0x10b0)
    105e:	681b      	ldr	r3, [r3, #0]
    1060:	b2db      	uxtb	r3, r3
    1062:	2b06      	cmp	r3, #6
    1064:	d11d      	bne.n	0x10a2
    1066:	4b13      	ldr	r3, [pc, #76]	; (0x10b4)
    1068:	681b      	ldr	r3, [r3, #0]
    106a:	f003 030f 	and.w	r3, r3, #15
    106e:	2b00      	cmp	r3, #0
    1070:	d117      	bne.n	0x10a2
    1072:	4b11      	ldr	r3, [pc, #68]	; (0x10b8)
    1074:	681b      	ldr	r3, [r3, #0]
    1076:	f003 03f0 	and.w	r3, r3, #240	; 0xf0
    107a:	2b30      	cmp	r3, #48	; 0x30
    107c:	d101      	bne.n	0x1082
    107e:	2301      	movs	r3, #1
    1080:	e010      	b.n	0x10a4
    1082:	4b0d      	ldr	r3, [pc, #52]	; (0x10b8)
    1084:	681b      	ldr	r3, [r3, #0]
    1086:	f003 03f0 	and.w	r3, r3, #240	; 0xf0
    108a:	2b40      	cmp	r3, #64	; 0x40
    108c:	d101      	bne.n	0x1092
    108e:	2301      	movs	r3, #1
    1090:	e008      	b.n	0x10a4
    1092:	4b09      	ldr	r3, [pc, #36]	; (0x10b8)
    1094:	681b      	ldr	r3, [r3, #0]
    1096:	f003 03f0 	and.w	r3, r3, #240	; 0xf0
    109a:	2b50      	cmp	r3, #80	; 0x50
    109c:	d101      	bne.n	0x10a2
    109e:	2301      	movs	r3, #1
    10a0:	e000      	b.n	0x10a4
    10a2:	2300      	movs	r3, #0
    10a4:	4618      	mov	r0, r3
    10a6:	46bd      	mov	sp, r7
    10a8:	f85d 7b04 	ldr.w	r7, [sp], #4
    10ac:	4770      	bx	lr
    10ae:	bf00      	nop
    10b0:	0fe0      	lsrs	r0, r4, #31
    10b2:	f000 0fe4 	and.w	pc, r0, #228	; 0xe4
    10b6:	f000 0fe8 	and.w	pc, r0, #232	; 0xe8
    10ba:	f000 b480 	b.w	0x4019be
    10be:	af00      	add	r7, sp, #0
    10c0:	4b14      	ldr	r3, [pc, #80]	; (0x1114)
    10c2:	681b      	ldr	r3, [r3, #0]
    10c4:	b2db      	uxtb	r3, r3
    10c6:	2b06      	cmp	r3, #6
    10c8:	d11d      	bne.n	0x1106
    10ca:	4b13      	ldr	r3, [pc, #76]	; (0x1118)
    10cc:	681b      	ldr	r3, [r3, #0]
    10ce:	f003 030f 	and.w	r3, r3, #15
    10d2:	2b00      	cmp	r3, #0
    10d4:	d117      	bne.n	0x1106
    10d6:	4b11      	ldr	r3, [pc, #68]	; (0x111c)
    10d8:	681b      	ldr	r3, [r3, #0]
    10da:	f003 03f0 	and.w	r3, r3, #240	; 0xf0
    10de:	2b30      	cmp	r3, #48	; 0x30
    10e0:	d101      	bne.n	0x10e6
    10e2:	2301      	movs	r3, #1
    10e4:	e010      	b.n	0x1108
    10e6:	4b0d      	ldr	r3, [pc, #52]	; (0x111c)
    10e8:	681b      	ldr	r3, [r3, #0]
    10ea:	f003 03f0 	and.w	r3, r3, #240	; 0xf0
    10ee:	2b40      	cmp	r3, #64	; 0x40
    10f0:	d101      	bne.n	0x10f6
    10f2:	2301      	movs	r3, #1
    10f4:	e008      	b.n	0x1108
    10f6:	4b09      	ldr	r3, [pc, #36]	; (0x111c)
    10f8:	681b      	ldr	r3, [r3, #0]
    10fa:	f003 03f0 	and.w	r3, r3, #240	; 0xf0
    10fe:	2b50      	cmp	r3, #80	; 0x50
    1100:	d101      	bne.n	0x1106
    1102:	2301      	movs	r3, #1
    1104:	e000      	b.n	0x1108
    1106:	2300      	movs	r3, #0
    1108:	4618      	mov	r0, r3
    110a:	46bd      	mov	sp, r7
    110c:	f85d 7b04 	ldr.w	r7, [sp], #4
    1110:	4770      	bx	lr
    1112:	bf00      	nop
    1114:	0fe0      	lsrs	r0, r4, #31
    1116:	f000 0fe4 	and.w	pc, r0, #228	; 0xe4
    111a:	f000 0fe8 	and.w	pc, r0, #232	; 0xe8
    111e:	f000 b508 	b.w	0x401b32
    1122:	4b07      	ldr	r3, [pc, #28]	; (0x1140)
    1124:	4604      	mov	r4, r0
    1126:	b113      	cbz	r3, 0x112e
    1128:	2100      	movs	r1, #0
    112a:	f3af 8000 	nop.w
    112e:	4b05      	ldr	r3, [pc, #20]	; (0x1144)
    1130:	6818      	ldr	r0, [r3, #0]
    1132:	6a83      	ldr	r3, [r0, #40]	; 0x28
    1134:	b103      	cbz	r3, 0x1138
    1136:	4798      	blx	r3
    1138:	4620      	mov	r0, r4
    113a:	f000 fcc3 	bl	0x1ac4
    113e:	bf00      	nop
    1140:	0000      	movs	r0, r0
    1142:	0000      	movs	r0, r0
    1144:	1b94      	subs	r4, r2, r6
    1146:	0000      	movs	r0, r0
    1148:	b570      	push	{r4, r5, r6, lr}
    114a:	4d0d      	ldr	r5, [pc, #52]	; (0x1180)
    114c:	4c0d      	ldr	r4, [pc, #52]	; (0x1184)
    114e:	1b64      	subs	r4, r4, r5
    1150:	10a4      	asrs	r4, r4, #2
    1152:	2600      	movs	r6, #0
    1154:	42a6      	cmp	r6, r4
    1156:	d109      	bne.n	0x116c
    1158:	4d0b      	ldr	r5, [pc, #44]	; (0x1188)
    115a:	4c0c      	ldr	r4, [pc, #48]	; (0x118c)
    115c:	f000 fcb4 	bl	0x1ac8
    1160:	1b64      	subs	r4, r4, r5
    1162:	10a4      	asrs	r4, r4, #2
    1164:	2600      	movs	r6, #0
    1166:	42a6      	cmp	r6, r4
    1168:	d105      	bne.n	0x1176
    116a:	bd70      	pop	{r4, r5, r6, pc}
    116c:	f855 3b04 	ldr.w	r3, [r5], #4
    1170:	4798      	blx	r3
    1172:	3601      	adds	r6, #1
    1174:	e7ee      	b.n	0x1154
    1176:	f855 3b04 	ldr.w	r3, [r5], #4
    117a:	4798      	blx	r3
    117c:	3601      	adds	r6, #1
    117e:	e7f2      	b.n	0x1166
    1180:	0070      	lsls	r0, r6, #1
    1182:	2000      	movs	r0, #0
    1184:	0070      	lsls	r0, r6, #1
    1186:	2000      	movs	r0, #0
    1188:	0070      	lsls	r0, r6, #1
    118a:	2000      	movs	r0, #0
    118c:	0074      	lsls	r4, r6, #1
    118e:	2000      	movs	r0, #0
    1190:	4402      	add	r2, r0
    1192:	4603      	mov	r3, r0
    1194:	4293      	cmp	r3, r2
    1196:	d100      	bne.n	0x119a
    1198:	4770      	bx	lr
    119a:	f803 1b01 	strb.w	r1, [r3], #1
    119e:	e7f9      	b.n	0x1194
    11a0:	b530      	push	{r4, r5, lr}
    11a2:	1e14      	subs	r4, r2, #0
    11a4:	4605      	mov	r5, r0
    11a6:	b09b      	sub	sp, #108	; 0x6c
    11a8:	4618      	mov	r0, r3
    11aa:	da05      	bge.n	0x11b8
    11ac:	238b      	movs	r3, #139	; 0x8b
    11ae:	602b      	str	r3, [r5, #0]
    11b0:	f04f 30ff 	mov.w	r0, #4294967295	; 0xffffffff
    11b4:	b01b      	add	sp, #108	; 0x6c
    11b6:	bd30      	pop	{r4, r5, pc}
    11b8:	f44f 7302 	mov.w	r3, #520	; 0x208
    11bc:	f8ad 300c 	strh.w	r3, [sp, #12]
    11c0:	bf14      	ite	ne
    11c2:	f104 33ff 	addne.w	r3, r4, #4294967295	; 0xffffffff
    11c6:	4623      	moveq	r3, r4
    11c8:	9302      	str	r3, [sp, #8]
    11ca:	9305      	str	r3, [sp, #20]
    11cc:	f64f 73ff 	movw	r3, #65535	; 0xffff
    11d0:	9100      	str	r1, [sp, #0]
    11d2:	9104      	str	r1, [sp, #16]
    11d4:	f8ad 300e 	strh.w	r3, [sp, #14]
    11d8:	4602      	mov	r2, r0
    11da:	9b1e      	ldr	r3, [sp, #120]	; 0x78
    11dc:	4669      	mov	r1, sp
    11de:	4628      	mov	r0, r5
    11e0:	f000 f874 	bl	0x12cc
    11e4:	1c43      	adds	r3, r0, #1
    11e6:	bfbc      	itt	lt
    11e8:	238b      	movlt	r3, #139	; 0x8b
    11ea:	602b      	strlt	r3, [r5, #0]
    11ec:	2c00      	cmp	r4, #0
    11ee:	d0e1      	beq.n	0x11b4
    11f0:	9b00      	ldr	r3, [sp, #0]
    11f2:	2200      	movs	r2, #0
    11f4:	701a      	strb	r2, [r3, #0]
    11f6:	e7dd      	b.n	0x11b4
    11f8:	b507      	push	{r0, r1, r2, lr}
    11fa:	9300      	str	r3, [sp, #0]
    11fc:	4613      	mov	r3, r2
    11fe:	460a      	mov	r2, r1
    1200:	4601      	mov	r1, r0
    1202:	4803      	ldr	r0, [pc, #12]	; (0x1210)
    1204:	6800      	ldr	r0, [r0, #0]
    1206:	f7ff ffcb 	bl	0x11a0
    120a:	b003      	add	sp, #12
    120c:	f85d fb04 	ldr.w	pc, [sp], #4
    1210:	000c      	movs	r4, r1
    1212:	2000      	movs	r0, #0
    1214:	e92d 47f0 	stmdb	sp!, {r4, r5, r6, r7, r8, r9, sl, lr}
    1218:	688e      	ldr	r6, [r1, #8]
    121a:	429e      	cmp	r6, r3
    121c:	4682      	mov	sl, r0
    121e:	460c      	mov	r4, r1
    1220:	4691      	mov	r9, r2
    1222:	4698      	mov	r8, r3
    1224:	d838      	bhi.n	0x1298
    1226:	f8b1 c00c 	ldrh.w	ip, [r1, #12]
    122a:	f41c 6f90 	tst.w	ip, #1152	; 0x480
    122e:	d031      	beq.n	0x1294
    1230:	6962      	ldr	r2, [r4, #20]
    1232:	6825      	ldr	r5, [r4, #0]
    1234:	6909      	ldr	r1, [r1, #16]
    1236:	eb02 0242 	add.w	r2, r2, r2, lsl #1
    123a:	1a6f      	subs	r7, r5, r1
    123c:	eb02 72d2 	add.w	r2, r2, r2, lsr #31
    1240:	3301      	adds	r3, #1
    1242:	1055      	asrs	r5, r2, #1
    1244:	443b      	add	r3, r7
    1246:	429d      	cmp	r5, r3
    1248:	bf38      	it	cc
    124a:	461d      	movcc	r5, r3
    124c:	f41c 6f80 	tst.w	ip, #1024	; 0x400
    1250:	d030      	beq.n	0x12b4
    1252:	4629      	mov	r1, r5
    1254:	f000 fb82 	bl	0x195c
    1258:	4606      	mov	r6, r0
    125a:	b950      	cbnz	r0, 0x1272
    125c:	230c      	movs	r3, #12
    125e:	f8ca 3000 	str.w	r3, [sl]
    1262:	89a3      	ldrh	r3, [r4, #12]
    1264:	f043 0340 	orr.w	r3, r3, #64	; 0x40
    1268:	81a3      	strh	r3, [r4, #12]
    126a:	f04f 30ff 	mov.w	r0, #4294967295	; 0xffffffff
    126e:	e8bd 87f0 	ldmia.w	sp!, {r4, r5, r6, r7, r8, r9, sl, pc}
    1272:	463a      	mov	r2, r7
    1274:	6921      	ldr	r1, [r4, #16]
    1276:	f000 fafb 	bl	0x1870
    127a:	89a3      	ldrh	r3, [r4, #12]
    127c:	f423 6390 	bic.w	r3, r3, #1152	; 0x480
    1280:	f043 0380 	orr.w	r3, r3, #128	; 0x80
    1284:	81a3      	strh	r3, [r4, #12]
    1286:	6126      	str	r6, [r4, #16]
    1288:	6165      	str	r5, [r4, #20]
    128a:	443e      	add	r6, r7
    128c:	1bed      	subs	r5, r5, r7
    128e:	6026      	str	r6, [r4, #0]
    1290:	60a5      	str	r5, [r4, #8]
    1292:	4646      	mov	r6, r8
    1294:	4546      	cmp	r6, r8
    1296:	d900      	bls.n	0x129a
    1298:	4646      	mov	r6, r8
    129a:	4632      	mov	r2, r6
    129c:	4649      	mov	r1, r9
    129e:	6820      	ldr	r0, [r4, #0]
    12a0:	f000 faf4 	bl	0x188c
    12a4:	68a3      	ldr	r3, [r4, #8]
    12a6:	1b9b      	subs	r3, r3, r6
    12a8:	60a3      	str	r3, [r4, #8]
    12aa:	6823      	ldr	r3, [r4, #0]
    12ac:	441e      	add	r6, r3
    12ae:	6026      	str	r6, [r4, #0]
    12b0:	2000      	movs	r0, #0
    12b2:	e7dc      	b.n	0x126e
    12b4:	462a      	mov	r2, r5
    12b6:	f000 fbab 	bl	0x1a10
    12ba:	4606      	mov	r6, r0
    12bc:	2800      	cmp	r0, #0
    12be:	d1e2      	bne.n	0x1286
    12c0:	6921      	ldr	r1, [r4, #16]
    12c2:	4650      	mov	r0, sl
    12c4:	f000 fafc 	bl	0x18c0
    12c8:	e7c8      	b.n	0x125c
    12ca:	0000      	movs	r0, r0
    12cc:	e92d 4ff0 	stmdb	sp!, {r4, r5, r6, r7, r8, r9, sl, fp, lr}
    12d0:	461e      	mov	r6, r3
    12d2:	898b      	ldrh	r3, [r1, #12]
    12d4:	061b      	lsls	r3, r3, #24
    12d6:	b09d      	sub	sp, #116	; 0x74
    12d8:	4607      	mov	r7, r0
    12da:	460d      	mov	r5, r1
    12dc:	4614      	mov	r4, r2
    12de:	d50e      	bpl.n	0x12fe
    12e0:	690b      	ldr	r3, [r1, #16]
    12e2:	b963      	cbnz	r3, 0x12fe
    12e4:	2140      	movs	r1, #64	; 0x40
    12e6:	f000 fb39 	bl	0x195c
    12ea:	6028      	str	r0, [r5, #0]
    12ec:	6128      	str	r0, [r5, #16]
    12ee:	b920      	cbnz	r0, 0x12fa
    12f0:	230c      	movs	r3, #12
    12f2:	603b      	str	r3, [r7, #0]
    12f4:	f04f 30ff 	mov.w	r0, #4294967295	; 0xffffffff
    12f8:	e0c9      	b.n	0x148e
    12fa:	2340      	movs	r3, #64	; 0x40
    12fc:	616b      	str	r3, [r5, #20]
    12fe:	2300      	movs	r3, #0
    1300:	9309      	str	r3, [sp, #36]	; 0x24
    1302:	2320      	movs	r3, #32
    1304:	f88d 3029 	strb.w	r3, [sp, #41]	; 0x29
    1308:	f8df 919c 	ldr.w	r9, [pc, #412]	; 0x14a8
    130c:	9603      	str	r6, [sp, #12]
    130e:	2330      	movs	r3, #48	; 0x30
    1310:	f88d 302a 	strb.w	r3, [sp, #42]	; 0x2a
    1314:	f04f 0a01 	mov.w	sl, #1
    1318:	4623      	mov	r3, r4
    131a:	461e      	mov	r6, r3
    131c:	f813 2b01 	ldrb.w	r2, [r3], #1
    1320:	b10a      	cbz	r2, 0x1326
    1322:	2a25      	cmp	r2, #37	; 0x25
    1324:	d1f9      	bne.n	0x131a
    1326:	ebb6 0b04 	subs.w	fp, r6, r4
    132a:	d00b      	beq.n	0x1344
    132c:	465b      	mov	r3, fp
    132e:	4622      	mov	r2, r4
    1330:	4629      	mov	r1, r5
    1332:	4638      	mov	r0, r7
    1334:	f7ff ff6e 	bl	0x1214
    1338:	3001      	adds	r0, #1
    133a:	f000 80a3 	beq.w	0x1484
    133e:	9b09      	ldr	r3, [sp, #36]	; 0x24
    1340:	445b      	add	r3, fp
    1342:	9309      	str	r3, [sp, #36]	; 0x24
    1344:	7833      	ldrb	r3, [r6, #0]
    1346:	2b00      	cmp	r3, #0
    1348:	f000 809c 	beq.w	0x1484
    134c:	2300      	movs	r3, #0
    134e:	f04f 32ff 	mov.w	r2, #4294967295	; 0xffffffff
    1352:	e9cd 2305 	strd	r2, r3, [sp, #20]
    1356:	3601      	adds	r6, #1
    1358:	9304      	str	r3, [sp, #16]
    135a:	9307      	str	r3, [sp, #28]
    135c:	f88d 3053 	strb.w	r3, [sp, #83]	; 0x53
    1360:	931a      	str	r3, [sp, #104]	; 0x68
    1362:	4634      	mov	r4, r6
    1364:	2205      	movs	r2, #5
    1366:	f814 1b01 	ldrb.w	r1, [r4], #1
    136a:	484f      	ldr	r0, [pc, #316]	; (0x14a8)
    136c:	f000 fa30 	bl	0x17d0
    1370:	9b04      	ldr	r3, [sp, #16]
    1372:	b9c0      	cbnz	r0, 0x13a6
    1374:	06d9      	lsls	r1, r3, #27
    1376:	bf44      	itt	mi
    1378:	2220      	movmi	r2, #32
    137a:	f88d 2053 	strbmi.w	r2, [sp, #83]	; 0x53
    137e:	071a      	lsls	r2, r3, #28
    1380:	bf44      	itt	mi
    1382:	222b      	movmi	r2, #43	; 0x2b
    1384:	f88d 2053 	strbmi.w	r2, [sp, #83]	; 0x53
    1388:	7832      	ldrb	r2, [r6, #0]
    138a:	2a2a      	cmp	r2, #42	; 0x2a
    138c:	d013      	beq.n	0x13b6
    138e:	9a07      	ldr	r2, [sp, #28]
    1390:	4634      	mov	r4, r6
    1392:	2000      	movs	r0, #0
    1394:	260a      	movs	r6, #10
    1396:	4621      	mov	r1, r4
    1398:	f811 3b01 	ldrb.w	r3, [r1], #1
    139c:	3b30      	subs	r3, #48	; 0x30
    139e:	2b09      	cmp	r3, #9
    13a0:	d94b      	bls.n	0x143a
    13a2:	b970      	cbnz	r0, 0x13c2
    13a4:	e014      	b.n	0x13d0
    13a6:	eba0 0009 	sub.w	r0, r0, r9
    13aa:	fa0a f000 	lsl.w	r0, sl, r0
    13ae:	4318      	orrs	r0, r3
    13b0:	9004      	str	r0, [sp, #16]
    13b2:	4626      	mov	r6, r4
    13b4:	e7d5      	b.n	0x1362
    13b6:	9a03      	ldr	r2, [sp, #12]
    13b8:	1d11      	adds	r1, r2, #4
    13ba:	6812      	ldr	r2, [r2, #0]
    13bc:	9103      	str	r1, [sp, #12]
    13be:	2a00      	cmp	r2, #0
    13c0:	db01      	blt.n	0x13c6
    13c2:	9207      	str	r2, [sp, #28]
    13c4:	e004      	b.n	0x13d0
    13c6:	4252      	negs	r2, r2
    13c8:	f043 0302 	orr.w	r3, r3, #2
    13cc:	9207      	str	r2, [sp, #28]
    13ce:	9304      	str	r3, [sp, #16]
    13d0:	7823      	ldrb	r3, [r4, #0]
    13d2:	2b2e      	cmp	r3, #46	; 0x2e
    13d4:	d10c      	bne.n	0x13f0
    13d6:	7863      	ldrb	r3, [r4, #1]
    13d8:	2b2a      	cmp	r3, #42	; 0x2a
    13da:	d133      	bne.n	0x1444
    13dc:	9b03      	ldr	r3, [sp, #12]
    13de:	1d1a      	adds	r2, r3, #4
    13e0:	681b      	ldr	r3, [r3, #0]
    13e2:	9203      	str	r2, [sp, #12]
    13e4:	2b00      	cmp	r3, #0
    13e6:	bfb8      	it	lt
    13e8:	f04f 33ff 	movlt.w	r3, #4294967295	; 0xffffffff
    13ec:	3402      	adds	r4, #2
    13ee:	9305      	str	r3, [sp, #20]
    13f0:	4e2e      	ldr	r6, [pc, #184]	; (0x14ac)
    13f2:	7821      	ldrb	r1, [r4, #0]
    13f4:	2203      	movs	r2, #3
    13f6:	4630      	mov	r0, r6
    13f8:	f000 f9ea 	bl	0x17d0
    13fc:	b138      	cbz	r0, 0x140e
    13fe:	2340      	movs	r3, #64	; 0x40
    1400:	1b80      	subs	r0, r0, r6
    1402:	fa03 f000 	lsl.w	r0, r3, r0
    1406:	9b04      	ldr	r3, [sp, #16]
    1408:	4303      	orrs	r3, r0
    140a:	3401      	adds	r4, #1
    140c:	9304      	str	r3, [sp, #16]
    140e:	f814 1b01 	ldrb.w	r1, [r4], #1
    1412:	4827      	ldr	r0, [pc, #156]	; (0x14b0)
    1414:	f88d 1028 	strb.w	r1, [sp, #40]	; 0x28
    1418:	2206      	movs	r2, #6
    141a:	f000 f9d9 	bl	0x17d0
    141e:	2800      	cmp	r0, #0
    1420:	d038      	beq.n	0x1494
    1422:	4b24      	ldr	r3, [pc, #144]	; (0x14b4)
    1424:	bb13      	cbnz	r3, 0x146c
    1426:	9b03      	ldr	r3, [sp, #12]
    1428:	3307      	adds	r3, #7
    142a:	f023 0307 	bic.w	r3, r3, #7
    142e:	3308      	adds	r3, #8
    1430:	9303      	str	r3, [sp, #12]
    1432:	9b09      	ldr	r3, [sp, #36]	; 0x24
    1434:	4443      	add	r3, r8
    1436:	9309      	str	r3, [sp, #36]	; 0x24
    1438:	e76e      	b.n	0x1318
    143a:	fb06 3202 	mla	r2, r6, r2, r3
    143e:	2001      	movs	r0, #1
    1440:	460c      	mov	r4, r1
    1442:	e7a8      	b.n	0x1396
    1444:	2300      	movs	r3, #0
    1446:	3401      	adds	r4, #1
    1448:	9305      	str	r3, [sp, #20]
    144a:	4619      	mov	r1, r3
    144c:	260a      	movs	r6, #10
    144e:	4620      	mov	r0, r4
    1450:	f810 2b01 	ldrb.w	r2, [r0], #1
    1454:	3a30      	subs	r2, #48	; 0x30
    1456:	2a09      	cmp	r2, #9
    1458:	d903      	bls.n	0x1462
    145a:	2b00      	cmp	r3, #0
    145c:	d0c8      	beq.n	0x13f0
    145e:	9105      	str	r1, [sp, #20]
    1460:	e7c6      	b.n	0x13f0
    1462:	fb06 2101 	mla	r1, r6, r1, r2
    1466:	2301      	movs	r3, #1
    1468:	4604      	mov	r4, r0
    146a:	e7f0      	b.n	0x144e
    146c:	ab03      	add	r3, sp, #12
    146e:	9300      	str	r3, [sp, #0]
    1470:	462a      	mov	r2, r5
    1472:	4b11      	ldr	r3, [pc, #68]	; (0x14b8)
    1474:	a904      	add	r1, sp, #16
    1476:	4638      	mov	r0, r7
    1478:	f3af 8000 	nop.w
    147c:	f1b0 3fff 	cmp.w	r0, #4294967295	; 0xffffffff
    1480:	4680      	mov	r8, r0
    1482:	d1d6      	bne.n	0x1432
    1484:	89ab      	ldrh	r3, [r5, #12]
    1486:	065b      	lsls	r3, r3, #25
    1488:	f53f af34 	bmi.w	0x12f4
    148c:	9809      	ldr	r0, [sp, #36]	; 0x24
    148e:	b01d      	add	sp, #116	; 0x74
    1490:	e8bd 8ff0 	ldmia.w	sp!, {r4, r5, r6, r7, r8, r9, sl, fp, pc}
    1494:	ab03      	add	r3, sp, #12
    1496:	9300      	str	r3, [sp, #0]
    1498:	462a      	mov	r2, r5
    149a:	4b07      	ldr	r3, [pc, #28]	; (0x14b8)
    149c:	a904      	add	r1, sp, #16
    149e:	4638      	mov	r0, r7
    14a0:	f000 f882 	bl	0x15a8
    14a4:	e7ea      	b.n	0x147c
    14a6:	bf00      	nop
    14a8:	1b98      	subs	r0, r3, r6
    14aa:	0000      	movs	r0, r0
    14ac:	1b9e      	subs	r6, r3, r6
    14ae:	0000      	movs	r0, r0
    14b0:	1ba2      	subs	r2, r4, r6
    14b2:	0000      	movs	r0, r0
    14b4:	0000      	movs	r0, r0
    14b6:	0000      	movs	r0, r0
    14b8:	1215      	asrs	r5, r2, #8
    14ba:	0000      	movs	r0, r0
    14bc:	e92d 47f0 	stmdb	sp!, {r4, r5, r6, r7, r8, r9, sl, lr}
    14c0:	4691      	mov	r9, r2
    14c2:	461f      	mov	r7, r3
    14c4:	688a      	ldr	r2, [r1, #8]
    14c6:	690b      	ldr	r3, [r1, #16]
    14c8:	f8dd 8020 	ldr.w	r8, [sp, #32]
    14cc:	4293      	cmp	r3, r2
    14ce:	bfb8      	it	lt
    14d0:	4613      	movlt	r3, r2
    14d2:	f8c9 3000 	str.w	r3, [r9]
    14d6:	f891 2043 	ldrb.w	r2, [r1, #67]	; 0x43
    14da:	4606      	mov	r6, r0
    14dc:	460c      	mov	r4, r1
    14de:	b112      	cbz	r2, 0x14e6
    14e0:	3301      	adds	r3, #1
    14e2:	f8c9 3000 	str.w	r3, [r9]
    14e6:	6823      	ldr	r3, [r4, #0]
    14e8:	0699      	lsls	r1, r3, #26
    14ea:	bf42      	ittt	mi
    14ec:	f8d9 3000 	ldrmi.w	r3, [r9]
    14f0:	3302      	addmi	r3, #2
    14f2:	f8c9 3000 	strmi.w	r3, [r9]
    14f6:	6825      	ldr	r5, [r4, #0]
    14f8:	f015 0506 	ands.w	r5, r5, #6
    14fc:	d107      	bne.n	0x150e
    14fe:	f104 0a19 	add.w	sl, r4, #25
    1502:	68e3      	ldr	r3, [r4, #12]
    1504:	f8d9 2000 	ldr.w	r2, [r9]
    1508:	1a9b      	subs	r3, r3, r2
    150a:	42ab      	cmp	r3, r5
    150c:	dc28      	bgt.n	0x1560
    150e:	f894 3043 	ldrb.w	r3, [r4, #67]	; 0x43
    1512:	6822      	ldr	r2, [r4, #0]
    1514:	3300      	adds	r3, #0
    1516:	bf18      	it	ne
    1518:	2301      	movne	r3, #1
    151a:	0692      	lsls	r2, r2, #26
    151c:	d42d      	bmi.n	0x157a
    151e:	f104 0243 	add.w	r2, r4, #67	; 0x43
    1522:	4639      	mov	r1, r7
    1524:	4630      	mov	r0, r6
    1526:	47c0      	blx	r8
    1528:	3001      	adds	r0, #1
    152a:	d020      	beq.n	0x156e
    152c:	6823      	ldr	r3, [r4, #0]
    152e:	68e5      	ldr	r5, [r4, #12]
    1530:	f8d9 2000 	ldr.w	r2, [r9]
    1534:	f003 0306 	and.w	r3, r3, #6
    1538:	2b04      	cmp	r3, #4
    153a:	bf08      	it	eq
    153c:	1aad      	subeq	r5, r5, r2
    153e:	68a3      	ldr	r3, [r4, #8]
    1540:	6922      	ldr	r2, [r4, #16]
    1542:	bf0c      	ite	eq
    1544:	ea25 75e5 	biceq.w	r5, r5, r5, asr #31
    1548:	2500      	movne	r5, #0
    154a:	4293      	cmp	r3, r2
    154c:	bfc4      	itt	gt
    154e:	1a9b      	subgt	r3, r3, r2
    1550:	18ed      	addgt	r5, r5, r3
    1552:	f04f 0900 	mov.w	r9, #0
    1556:	341a      	adds	r4, #26
    1558:	454d      	cmp	r5, r9
    155a:	d11a      	bne.n	0x1592
    155c:	2000      	movs	r0, #0
    155e:	e008      	b.n	0x1572
    1560:	2301      	movs	r3, #1
    1562:	4652      	mov	r2, sl
    1564:	4639      	mov	r1, r7
    1566:	4630      	mov	r0, r6
    1568:	47c0      	blx	r8
    156a:	3001      	adds	r0, #1
    156c:	d103      	bne.n	0x1576
    156e:	f04f 30ff 	mov.w	r0, #4294967295	; 0xffffffff
    1572:	e8bd 87f0 	ldmia.w	sp!, {r4, r5, r6, r7, r8, r9, sl, pc}
    1576:	3501      	adds	r5, #1
    1578:	e7c3      	b.n	0x1502
    157a:	18e1      	adds	r1, r4, r3
    157c:	1c5a      	adds	r2, r3, #1
    157e:	2030      	movs	r0, #48	; 0x30
    1580:	f881 0043 	strb.w	r0, [r1, #67]	; 0x43
    1584:	4422      	add	r2, r4
    1586:	f894 1045 	ldrb.w	r1, [r4, #69]	; 0x45
    158a:	f882 1043 	strb.w	r1, [r2, #67]	; 0x43
    158e:	3302      	adds	r3, #2
    1590:	e7c5      	b.n	0x151e
    1592:	2301      	movs	r3, #1
    1594:	4622      	mov	r2, r4
    1596:	4639      	mov	r1, r7
    1598:	4630      	mov	r0, r6
    159a:	47c0      	blx	r8
    159c:	3001      	adds	r0, #1
    159e:	d0e6      	beq.n	0x156e
    15a0:	f109 0901 	add.w	r9, r9, #1
    15a4:	e7d8      	b.n	0x1558
    15a6:	0000      	movs	r0, r0
    15a8:	e92d 43f0 	stmdb	sp!, {r4, r5, r6, r7, r8, r9, lr}
    15ac:	4606      	mov	r6, r0
    15ae:	460c      	mov	r4, r1
    15b0:	f101 0043 	add.w	r0, r1, #67	; 0x43
    15b4:	7e09      	ldrb	r1, [r1, #24]
    15b6:	b085      	sub	sp, #20
    15b8:	296e      	cmp	r1, #110	; 0x6e
    15ba:	4698      	mov	r8, r3
    15bc:	4617      	mov	r7, r2
    15be:	9b0c      	ldr	r3, [sp, #48]	; 0x30
    15c0:	f000 80ba 	beq.w	0x1738
    15c4:	d824      	bhi.n	0x1610
    15c6:	2963      	cmp	r1, #99	; 0x63
    15c8:	d039      	beq.n	0x163e
    15ca:	d80a      	bhi.n	0x15e2
    15cc:	2900      	cmp	r1, #0
    15ce:	f000 80c3 	beq.w	0x1758
    15d2:	2958      	cmp	r1, #88	; 0x58
    15d4:	f000 8091 	beq.w	0x16fa
    15d8:	f104 0542 	add.w	r5, r4, #66	; 0x42
    15dc:	f884 1042 	strb.w	r1, [r4, #66]	; 0x42
    15e0:	e035      	b.n	0x164e
    15e2:	2964      	cmp	r1, #100	; 0x64
    15e4:	d001      	beq.n	0x15ea
    15e6:	2969      	cmp	r1, #105	; 0x69
    15e8:	d1f6      	bne.n	0x15d8
    15ea:	6825      	ldr	r5, [r4, #0]
    15ec:	681a      	ldr	r2, [r3, #0]
    15ee:	f015 0f80 	tst.w	r5, #128	; 0x80
    15f2:	f102 0104 	add.w	r1, r2, #4
    15f6:	d02c      	beq.n	0x1652
    15f8:	6812      	ldr	r2, [r2, #0]
    15fa:	6019      	str	r1, [r3, #0]
    15fc:	2a00      	cmp	r2, #0
    15fe:	da03      	bge.n	0x1608
    1600:	232d      	movs	r3, #45	; 0x2d
    1602:	4252      	negs	r2, r2
    1604:	f884 3043 	strb.w	r3, [r4, #67]	; 0x43
    1608:	f8df c1bc 	ldr.w	ip, [pc, #444]	; 0x17c8
    160c:	230a      	movs	r3, #10
    160e:	e03f      	b.n	0x1690
    1610:	2973      	cmp	r1, #115	; 0x73
    1612:	f000 80a5 	beq.w	0x1760
    1616:	d808      	bhi.n	0x162a
    1618:	296f      	cmp	r1, #111	; 0x6f
    161a:	d021      	beq.n	0x1660
    161c:	2970      	cmp	r1, #112	; 0x70
    161e:	d1db      	bne.n	0x15d8
    1620:	6822      	ldr	r2, [r4, #0]
    1622:	f042 0220 	orr.w	r2, r2, #32
    1626:	6022      	str	r2, [r4, #0]
    1628:	e003      	b.n	0x1632
    162a:	2975      	cmp	r1, #117	; 0x75
    162c:	d018      	beq.n	0x1660
    162e:	2978      	cmp	r1, #120	; 0x78
    1630:	d1d2      	bne.n	0x15d8
    1632:	2278      	movs	r2, #120	; 0x78
    1634:	f884 2045 	strb.w	r2, [r4, #69]	; 0x45
    1638:	f8df c190 	ldr.w	ip, [pc, #400]	; 0x17cc
    163c:	e061      	b.n	0x1702
    163e:	681a      	ldr	r2, [r3, #0]
    1640:	1d11      	adds	r1, r2, #4
    1642:	6019      	str	r1, [r3, #0]
    1644:	6813      	ldr	r3, [r2, #0]
    1646:	f884 3042 	strb.w	r3, [r4, #66]	; 0x42
    164a:	f104 0542 	add.w	r5, r4, #66	; 0x42
    164e:	2301      	movs	r3, #1
    1650:	e093      	b.n	0x177a
    1652:	6812      	ldr	r2, [r2, #0]
    1654:	6019      	str	r1, [r3, #0]
    1656:	f015 0f40 	tst.w	r5, #64	; 0x40
    165a:	bf18      	it	ne
    165c:	b212      	sxthne	r2, r2
    165e:	e7cd      	b.n	0x15fc
    1660:	f8d4 c000 	ldr.w	ip, [r4]
    1664:	681a      	ldr	r2, [r3, #0]
    1666:	f01c 0f80 	tst.w	ip, #128	; 0x80
    166a:	f102 0504 	add.w	r5, r2, #4
    166e:	601d      	str	r5, [r3, #0]
    1670:	d001      	beq.n	0x1676
    1672:	6812      	ldr	r2, [r2, #0]
    1674:	e003      	b.n	0x167e
    1676:	f01c 0f40 	tst.w	ip, #64	; 0x40
    167a:	d0fa      	beq.n	0x1672
    167c:	8812      	ldrh	r2, [r2, #0]
    167e:	f8df c148 	ldr.w	ip, [pc, #328]	; 0x17c8
    1682:	296f      	cmp	r1, #111	; 0x6f
    1684:	bf0c      	ite	eq
    1686:	2308      	moveq	r3, #8
    1688:	230a      	movne	r3, #10
    168a:	2100      	movs	r1, #0
    168c:	f884 1043 	strb.w	r1, [r4, #67]	; 0x43
    1690:	6865      	ldr	r5, [r4, #4]
    1692:	60a5      	str	r5, [r4, #8]
    1694:	2d00      	cmp	r5, #0
    1696:	bfa2      	ittt	ge
    1698:	6821      	ldrge	r1, [r4, #0]
    169a:	f021 0104 	bicge.w	r1, r1, #4
    169e:	6021      	strge	r1, [r4, #0]
    16a0:	b90a      	cbnz	r2, 0x16a6
    16a2:	2d00      	cmp	r5, #0
    16a4:	d046      	beq.n	0x1734
    16a6:	4605      	mov	r5, r0
    16a8:	fbb2 f1f3 	udiv	r1, r2, r3
    16ac:	fb03 2e11 	mls	lr, r3, r1, r2
    16b0:	4293      	cmp	r3, r2
    16b2:	f81c e00e 	ldrb.w	lr, [ip, lr]
    16b6:	f805 ed01 	strb.w	lr, [r5, #-1]!
    16ba:	d939      	bls.n	0x1730
    16bc:	2b08      	cmp	r3, #8
    16be:	d10b      	bne.n	0x16d8
    16c0:	6823      	ldr	r3, [r4, #0]
    16c2:	07da      	lsls	r2, r3, #31
    16c4:	d508      	bpl.n	0x16d8
    16c6:	6923      	ldr	r3, [r4, #16]
    16c8:	6862      	ldr	r2, [r4, #4]
    16ca:	429a      	cmp	r2, r3
    16cc:	bfde      	ittt	le
    16ce:	2330      	movle	r3, #48	; 0x30
    16d0:	f805 3c01 	strble.w	r3, [r5, #-1]
    16d4:	f105 35ff 	addle.w	r5, r5, #4294967295	; 0xffffffff
    16d8:	1b40      	subs	r0, r0, r5
    16da:	6120      	str	r0, [r4, #16]
    16dc:	f8cd 8000 	str.w	r8, [sp]
    16e0:	463b      	mov	r3, r7
    16e2:	aa03      	add	r2, sp, #12
    16e4:	4621      	mov	r1, r4
    16e6:	4630      	mov	r0, r6
    16e8:	f7ff fee8 	bl	0x14bc
    16ec:	3001      	adds	r0, #1
    16ee:	d149      	bne.n	0x1784
    16f0:	f04f 30ff 	mov.w	r0, #4294967295	; 0xffffffff
    16f4:	b005      	add	sp, #20
    16f6:	e8bd 83f0 	ldmia.w	sp!, {r4, r5, r6, r7, r8, r9, pc}
    16fa:	f8df c0cc 	ldr.w	ip, [pc, #204]	; 0x17c8
    16fe:	f884 1045 	strb.w	r1, [r4, #69]	; 0x45
    1702:	681d      	ldr	r5, [r3, #0]
    1704:	6821      	ldr	r1, [r4, #0]
    1706:	f855 2b04 	ldr.w	r2, [r5], #4
    170a:	601d      	str	r5, [r3, #0]
    170c:	060d      	lsls	r5, r1, #24
    170e:	d50b      	bpl.n	0x1728
    1710:	07cd      	lsls	r5, r1, #31
    1712:	bf44      	itt	mi
    1714:	f041 0120 	orrmi.w	r1, r1, #32
    1718:	6021      	strmi	r1, [r4, #0]
    171a:	b91a      	cbnz	r2, 0x1724
    171c:	6823      	ldr	r3, [r4, #0]
    171e:	f023 0320 	bic.w	r3, r3, #32
    1722:	6023      	str	r3, [r4, #0]
    1724:	2310      	movs	r3, #16
    1726:	e7b0      	b.n	0x168a
    1728:	064b      	lsls	r3, r1, #25
    172a:	bf48      	it	mi
    172c:	b292      	uxthmi	r2, r2
    172e:	e7ef      	b.n	0x1710
    1730:	460a      	mov	r2, r1
    1732:	e7b9      	b.n	0x16a8
    1734:	4605      	mov	r5, r0
    1736:	e7c1      	b.n	0x16bc
    1738:	681a      	ldr	r2, [r3, #0]
    173a:	f8d4 c000 	ldr.w	ip, [r4]
    173e:	6961      	ldr	r1, [r4, #20]
    1740:	1d15      	adds	r5, r2, #4
    1742:	601d      	str	r5, [r3, #0]
    1744:	f01c 0f80 	tst.w	ip, #128	; 0x80
    1748:	6813      	ldr	r3, [r2, #0]
    174a:	d001      	beq.n	0x1750
    174c:	6019      	str	r1, [r3, #0]
    174e:	e003      	b.n	0x1758
    1750:	f01c 0f40 	tst.w	ip, #64	; 0x40
    1754:	d0fa      	beq.n	0x174c
    1756:	8019      	strh	r1, [r3, #0]
    1758:	2300      	movs	r3, #0
    175a:	6123      	str	r3, [r4, #16]
    175c:	4605      	mov	r5, r0
    175e:	e7bd      	b.n	0x16dc
    1760:	681a      	ldr	r2, [r3, #0]
    1762:	1d11      	adds	r1, r2, #4
    1764:	6019      	str	r1, [r3, #0]
    1766:	6815      	ldr	r5, [r2, #0]
    1768:	6862      	ldr	r2, [r4, #4]
    176a:	2100      	movs	r1, #0
    176c:	4628      	mov	r0, r5
    176e:	f000 f82f 	bl	0x17d0
    1772:	b108      	cbz	r0, 0x1778
    1774:	1b40      	subs	r0, r0, r5
    1776:	6060      	str	r0, [r4, #4]
    1778:	6863      	ldr	r3, [r4, #4]
    177a:	6123      	str	r3, [r4, #16]
    177c:	2300      	movs	r3, #0
    177e:	f884 3043 	strb.w	r3, [r4, #67]	; 0x43
    1782:	e7ab      	b.n	0x16dc
    1784:	6923      	ldr	r3, [r4, #16]
    1786:	462a      	mov	r2, r5
    1788:	4639      	mov	r1, r7
    178a:	4630      	mov	r0, r6
    178c:	47c0      	blx	r8
    178e:	3001      	adds	r0, #1
    1790:	d0ae      	beq.n	0x16f0
    1792:	6823      	ldr	r3, [r4, #0]
    1794:	079b      	lsls	r3, r3, #30
    1796:	d413      	bmi.n	0x17c0
    1798:	68e0      	ldr	r0, [r4, #12]
    179a:	9b03      	ldr	r3, [sp, #12]
    179c:	4298      	cmp	r0, r3
    179e:	bfb8      	it	lt
    17a0:	4618      	movlt	r0, r3
    17a2:	e7a7      	b.n	0x16f4
    17a4:	2301      	movs	r3, #1
    17a6:	464a      	mov	r2, r9
    17a8:	4639      	mov	r1, r7
    17aa:	4630      	mov	r0, r6
    17ac:	47c0      	blx	r8
    17ae:	3001      	adds	r0, #1
    17b0:	d09e      	beq.n	0x16f0
    17b2:	3501      	adds	r5, #1
    17b4:	68e3      	ldr	r3, [r4, #12]
    17b6:	9a03      	ldr	r2, [sp, #12]
    17b8:	1a9b      	subs	r3, r3, r2
    17ba:	42ab      	cmp	r3, r5
    17bc:	dcf2      	bgt.n	0x17a4
    17be:	e7eb      	b.n	0x1798
    17c0:	2500      	movs	r5, #0
    17c2:	f104 0919 	add.w	r9, r4, #25
    17c6:	e7f5      	b.n	0x17b4
    17c8:	1ba9      	subs	r1, r5, r6
    17ca:	0000      	movs	r0, r0
    17cc:	1bba      	subs	r2, r7, r6
    17ce:	0000      	movs	r0, r0
    17d0:	f001 01ff 	and.w	r1, r1, #255	; 0xff
    17d4:	2a10      	cmp	r2, #16
    17d6:	db2b      	blt.n	0x1830
    17d8:	f010 0f07 	tst.w	r0, #7
    17dc:	d008      	beq.n	0x17f0
    17de:	f810 3b01 	ldrb.w	r3, [r0], #1
    17e2:	3a01      	subs	r2, #1
    17e4:	428b      	cmp	r3, r1
    17e6:	d02d      	beq.n	0x1844
    17e8:	f010 0f07 	tst.w	r0, #7
    17ec:	b342      	cbz	r2, 0x1840
    17ee:	d1f6      	bne.n	0x17de
    17f0:	b4f0      	push	{r4, r5, r6, r7}
    17f2:	ea41 2101 	orr.w	r1, r1, r1, lsl #8
    17f6:	ea41 4101 	orr.w	r1, r1, r1, lsl #16
    17fa:	f022 0407 	bic.w	r4, r2, #7
    17fe:	f07f 0700 	mvns.w	r7, #0
    1802:	2300      	movs	r3, #0
    1804:	e8f0 5602 	ldrd	r5, r6, [r0], #8
    1808:	3c08      	subs	r4, #8
    180a:	ea85 0501 	eor.w	r5, r5, r1
    180e:	ea86 0601 	eor.w	r6, r6, r1
    1812:	fa85 f547 	uadd8	r5, r5, r7
    1816:	faa3 f587 	sel	r5, r3, r7
    181a:	fa86 f647 	uadd8	r6, r6, r7
    181e:	faa5 f687 	sel	r6, r5, r7
    1822:	b98e      	cbnz	r6, 0x1848
    1824:	d1ee      	bne.n	0x1804
    1826:	bcf0      	pop	{r4, r5, r6, r7}
    1828:	f001 01ff 	and.w	r1, r1, #255	; 0xff
    182c:	f002 0207 	and.w	r2, r2, #7
    1830:	b132      	cbz	r2, 0x1840
    1832:	f810 3b01 	ldrb.w	r3, [r0], #1
    1836:	3a01      	subs	r2, #1
    1838:	ea83 0301 	eor.w	r3, r3, r1
    183c:	b113      	cbz	r3, 0x1844
    183e:	d1f8      	bne.n	0x1832
    1840:	2000      	movs	r0, #0
    1842:	4770      	bx	lr
    1844:	3801      	subs	r0, #1
    1846:	4770      	bx	lr
    1848:	2d00      	cmp	r5, #0
    184a:	bf06      	itte	eq
    184c:	4635      	moveq	r5, r6
    184e:	3803      	subeq	r0, #3
    1850:	3807      	subne	r0, #7
    1852:	f015 0f01 	tst.w	r5, #1
    1856:	d107      	bne.n	0x1868
    1858:	3001      	adds	r0, #1
    185a:	f415 7f80 	tst.w	r5, #256	; 0x100
    185e:	bf02      	ittt	eq
    1860:	3001      	addeq	r0, #1
    1862:	f415 3fc0 	tsteq.w	r5, #98304	; 0x18000
    1866:	3001      	addeq	r0, #1
    1868:	bcf0      	pop	{r4, r5, r6, r7}
    186a:	3801      	subs	r0, #1
    186c:	4770      	bx	lr
    186e:	bf00      	nop
    1870:	440a      	add	r2, r1
    1872:	4291      	cmp	r1, r2
    1874:	f100 33ff 	add.w	r3, r0, #4294967295	; 0xffffffff
    1878:	d100      	bne.n	0x187c
    187a:	4770      	bx	lr
    187c:	b510      	push	{r4, lr}
    187e:	f811 4b01 	ldrb.w	r4, [r1], #1
    1882:	f803 4f01 	strb.w	r4, [r3, #1]!
    1886:	4291      	cmp	r1, r2
    1888:	d1f9      	bne.n	0x187e
    188a:	bd10      	pop	{r4, pc}
    188c:	4288      	cmp	r0, r1
    188e:	b510      	push	{r4, lr}
    1890:	eb01 0302 	add.w	r3, r1, r2
    1894:	d902      	bls.n	0x189c
    1896:	4283      	cmp	r3, r0
    1898:	461c      	mov	r4, r3
    189a:	d807      	bhi.n	0x18ac
    189c:	1e42      	subs	r2, r0, #1
    189e:	4299      	cmp	r1, r3
    18a0:	d008      	beq.n	0x18b4
    18a2:	f811 4b01 	ldrb.w	r4, [r1], #1
    18a6:	f802 4f01 	strb.w	r4, [r2, #1]!
    18aa:	e7f8      	b.n	0x189e
    18ac:	1883      	adds	r3, r0, r2
    18ae:	1a9a      	subs	r2, r3, r2
    18b0:	429a      	cmp	r2, r3
    18b2:	d100      	bne.n	0x18b6
    18b4:	bd10      	pop	{r4, pc}
    18b6:	f814 1d01 	ldrb.w	r1, [r4, #-1]!
    18ba:	f803 1d01 	strb.w	r1, [r3, #-1]!
    18be:	e7f7      	b.n	0x18b0
    18c0:	b538      	push	{r3, r4, r5, lr}
    18c2:	4605      	mov	r5, r0
    18c4:	2900      	cmp	r1, #0
    18c6:	d045      	beq.n	0x1954
    18c8:	f851 3c04 	ldr.w	r3, [r1, #-4]
    18cc:	1f0c      	subs	r4, r1, #4
    18ce:	2b00      	cmp	r3, #0
    18d0:	bfb8      	it	lt
    18d2:	18e4      	addlt	r4, r4, r3
    18d4:	f000 f8d2 	bl	0x1a7c
    18d8:	4a1f      	ldr	r2, [pc, #124]	; (0x1958)
    18da:	6813      	ldr	r3, [r2, #0]
    18dc:	4610      	mov	r0, r2
    18de:	b933      	cbnz	r3, 0x18ee
    18e0:	6063      	str	r3, [r4, #4]
    18e2:	6014      	str	r4, [r2, #0]
    18e4:	4628      	mov	r0, r5
    18e6:	e8bd 4038 	ldmia.w	sp!, {r3, r4, r5, lr}
    18ea:	f000 b8cd 	b.w	0x1a88
    18ee:	42a3      	cmp	r3, r4
    18f0:	d90c      	bls.n	0x190c
    18f2:	6821      	ldr	r1, [r4, #0]
    18f4:	1862      	adds	r2, r4, r1
    18f6:	4293      	cmp	r3, r2
    18f8:	bf04      	itt	eq
    18fa:	681a      	ldreq	r2, [r3, #0]
    18fc:	685b      	ldreq	r3, [r3, #4]
    18fe:	6063      	str	r3, [r4, #4]
    1900:	bf04      	itt	eq
    1902:	1852      	addeq	r2, r2, r1
    1904:	6022      	streq	r2, [r4, #0]
    1906:	6004      	str	r4, [r0, #0]
    1908:	e7ec      	b.n	0x18e4
    190a:	4613      	mov	r3, r2
    190c:	685a      	ldr	r2, [r3, #4]
    190e:	b10a      	cbz	r2, 0x1914
    1910:	42a2      	cmp	r2, r4
    1912:	d9fa      	bls.n	0x190a
    1914:	6819      	ldr	r1, [r3, #0]
    1916:	1858      	adds	r0, r3, r1
    1918:	42a0      	cmp	r0, r4
    191a:	d10b      	bne.n	0x1934
    191c:	6820      	ldr	r0, [r4, #0]
    191e:	4401      	add	r1, r0
    1920:	1858      	adds	r0, r3, r1
    1922:	4282      	cmp	r2, r0
    1924:	6019      	str	r1, [r3, #0]
    1926:	d1dd      	bne.n	0x18e4
    1928:	6810      	ldr	r0, [r2, #0]
    192a:	6852      	ldr	r2, [r2, #4]
    192c:	605a      	str	r2, [r3, #4]
    192e:	4401      	add	r1, r0
    1930:	6019      	str	r1, [r3, #0]
    1932:	e7d7      	b.n	0x18e4
    1934:	d902      	bls.n	0x193c
    1936:	230c      	movs	r3, #12
    1938:	602b      	str	r3, [r5, #0]
    193a:	e7d3      	b.n	0x18e4
    193c:	6820      	ldr	r0, [r4, #0]
    193e:	1821      	adds	r1, r4, r0
    1940:	428a      	cmp	r2, r1
    1942:	bf04      	itt	eq
    1944:	6811      	ldreq	r1, [r2, #0]
    1946:	6852      	ldreq	r2, [r2, #4]
    1948:	6062      	str	r2, [r4, #4]
    194a:	bf04      	itt	eq
    194c:	1809      	addeq	r1, r1, r0
    194e:	6021      	streq	r1, [r4, #0]
    1950:	605c      	str	r4, [r3, #4]
    1952:	e7c7      	b.n	0x18e4
    1954:	bd38      	pop	{r3, r4, r5, pc}
    1956:	bf00      	nop
    1958:	00bc      	lsls	r4, r7, #2
    195a:	2000      	movs	r0, #0
    195c:	b5f8      	push	{r3, r4, r5, r6, r7, lr}
    195e:	1ccd      	adds	r5, r1, #3
    1960:	f025 0503 	bic.w	r5, r5, #3
    1964:	3508      	adds	r5, #8
    1966:	2d0c      	cmp	r5, #12
    1968:	bf38      	it	cc
    196a:	250c      	movcc	r5, #12
    196c:	2d00      	cmp	r5, #0
    196e:	4606      	mov	r6, r0
    1970:	db01      	blt.n	0x1976
    1972:	42a9      	cmp	r1, r5
    1974:	d903      	bls.n	0x197e
    1976:	230c      	movs	r3, #12
    1978:	6033      	str	r3, [r6, #0]
    197a:	2000      	movs	r0, #0
    197c:	bdf8      	pop	{r3, r4, r5, r6, r7, pc}
    197e:	f000 f87d 	bl	0x1a7c
    1982:	4921      	ldr	r1, [pc, #132]	; (0x1a08)
    1984:	680a      	ldr	r2, [r1, #0]
    1986:	4614      	mov	r4, r2
    1988:	b99c      	cbnz	r4, 0x19b2
    198a:	4f20      	ldr	r7, [pc, #128]	; (0x1a0c)
    198c:	683b      	ldr	r3, [r7, #0]
    198e:	b923      	cbnz	r3, 0x199a
    1990:	4621      	mov	r1, r4
    1992:	4630      	mov	r0, r6
    1994:	f000 f862 	bl	0x1a5c
    1998:	6038      	str	r0, [r7, #0]
    199a:	4629      	mov	r1, r5
    199c:	4630      	mov	r0, r6
    199e:	f000 f85d 	bl	0x1a5c
    19a2:	1c43      	adds	r3, r0, #1
    19a4:	d123      	bne.n	0x19ee
    19a6:	230c      	movs	r3, #12
    19a8:	6033      	str	r3, [r6, #0]
    19aa:	4630      	mov	r0, r6
    19ac:	f000 f86c 	bl	0x1a88
    19b0:	e7e3      	b.n	0x197a
    19b2:	6823      	ldr	r3, [r4, #0]
    19b4:	1b5b      	subs	r3, r3, r5
    19b6:	d417      	bmi.n	0x19e8
    19b8:	2b0b      	cmp	r3, #11
    19ba:	d903      	bls.n	0x19c4
    19bc:	6023      	str	r3, [r4, #0]
    19be:	441c      	add	r4, r3
    19c0:	6025      	str	r5, [r4, #0]
    19c2:	e004      	b.n	0x19ce
    19c4:	6863      	ldr	r3, [r4, #4]
    19c6:	42a2      	cmp	r2, r4
    19c8:	bf0c      	ite	eq
    19ca:	600b      	streq	r3, [r1, #0]
    19cc:	6053      	strne	r3, [r2, #4]
    19ce:	4630      	mov	r0, r6
    19d0:	f000 f85a 	bl	0x1a88
    19d4:	f104 000b 	add.w	r0, r4, #11
    19d8:	1d23      	adds	r3, r4, #4
    19da:	f020 0007 	bic.w	r0, r0, #7
    19de:	1ac2      	subs	r2, r0, r3
    19e0:	d0cc      	beq.n	0x197c
    19e2:	1a1b      	subs	r3, r3, r0
    19e4:	50a3      	str	r3, [r4, r2]
    19e6:	e7c9      	b.n	0x197c
    19e8:	4622      	mov	r2, r4
    19ea:	6864      	ldr	r4, [r4, #4]
    19ec:	e7cc      	b.n	0x1988
    19ee:	1cc4      	adds	r4, r0, #3
    19f0:	f024 0403 	bic.w	r4, r4, #3
    19f4:	42a0      	cmp	r0, r4
    19f6:	d0e3      	beq.n	0x19c0
    19f8:	1a21      	subs	r1, r4, r0
    19fa:	4630      	mov	r0, r6
    19fc:	f000 f82e 	bl	0x1a5c
    1a00:	3001      	adds	r0, #1
    1a02:	d1dd      	bne.n	0x19c0
    1a04:	e7cf      	b.n	0x19a6
    1a06:	bf00      	nop
    1a08:	00bc      	lsls	r4, r7, #2
    1a0a:	2000      	movs	r0, #0
    1a0c:	00c0      	lsls	r0, r0, #3
    1a0e:	2000      	movs	r0, #0
    1a10:	b5f8      	push	{r3, r4, r5, r6, r7, lr}
    1a12:	4607      	mov	r7, r0
    1a14:	4614      	mov	r4, r2
    1a16:	460e      	mov	r6, r1
    1a18:	b921      	cbnz	r1, 0x1a24
    1a1a:	4611      	mov	r1, r2
    1a1c:	e8bd 40f8 	ldmia.w	sp!, {r3, r4, r5, r6, r7, lr}
    1a20:	f7ff bf9c 	b.w	0x195c
    1a24:	b922      	cbnz	r2, 0x1a30
    1a26:	f7ff ff4b 	bl	0x18c0
    1a2a:	4625      	mov	r5, r4
    1a2c:	4628      	mov	r0, r5
    1a2e:	bdf8      	pop	{r3, r4, r5, r6, r7, pc}
    1a30:	f000 f830 	bl	0x1a94
    1a34:	42a0      	cmp	r0, r4
    1a36:	d20f      	bcs.n	0x1a58
    1a38:	4621      	mov	r1, r4
    1a3a:	4638      	mov	r0, r7
    1a3c:	f7ff ff8e 	bl	0x195c
    1a40:	4605      	mov	r5, r0
    1a42:	2800      	cmp	r0, #0
    1a44:	d0f2      	beq.n	0x1a2c
    1a46:	4631      	mov	r1, r6
    1a48:	4622      	mov	r2, r4
    1a4a:	f7ff ff11 	bl	0x1870
    1a4e:	4631      	mov	r1, r6
    1a50:	4638      	mov	r0, r7
    1a52:	f7ff ff35 	bl	0x18c0
    1a56:	e7e9      	b.n	0x1a2c
    1a58:	4635      	mov	r5, r6
    1a5a:	e7e7      	b.n	0x1a2c
    1a5c:	b538      	push	{r3, r4, r5, lr}
    1a5e:	4c06      	ldr	r4, [pc, #24]	; (0x1a78)
    1a60:	2300      	movs	r3, #0
    1a62:	4605      	mov	r5, r0
    1a64:	4608      	mov	r0, r1
    1a66:	6023      	str	r3, [r4, #0]
    1a68:	f000 f81e 	bl	0x1aa8
    1a6c:	1c43      	adds	r3, r0, #1
    1a6e:	d102      	bne.n	0x1a76
    1a70:	6823      	ldr	r3, [r4, #0]
    1a72:	b103      	cbz	r3, 0x1a76
    1a74:	602b      	str	r3, [r5, #0]
    1a76:	bd38      	pop	{r3, r4, r5, pc}
    1a78:	03c8      	lsls	r0, r1, #15
    1a7a:	2000      	movs	r0, #0
    1a7c:	4801      	ldr	r0, [pc, #4]	; (0x1a84)
    1a7e:	f000 b811 	b.w	0x1aa4
    1a82:	bf00      	nop
    1a84:	03d0      	lsls	r0, r2, #15
    1a86:	2000      	movs	r0, #0
    1a88:	4801      	ldr	r0, [pc, #4]	; (0x1a90)
    1a8a:	f000 b80c 	b.w	0x1aa6
    1a8e:	bf00      	nop
    1a90:	03d0      	lsls	r0, r2, #15
    1a92:	2000      	movs	r0, #0
    1a94:	f851 3c04 	ldr.w	r3, [r1, #-4]
    1a98:	1f18      	subs	r0, r3, #4
    1a9a:	2b00      	cmp	r3, #0
    1a9c:	bfbc      	itt	lt
    1a9e:	580b      	ldrlt	r3, [r1, r0]
    1aa0:	18c0      	addlt	r0, r0, r3
    1aa2:	4770      	bx	lr
    1aa4:	4770      	bx	lr
    1aa6:	4770      	bx	lr
    1aa8:	4a04      	ldr	r2, [pc, #16]	; (0x1abc)
    1aaa:	4905      	ldr	r1, [pc, #20]	; (0x1ac0)
    1aac:	6813      	ldr	r3, [r2, #0]
    1aae:	2b00      	cmp	r3, #0
    1ab0:	bf08      	it	eq
    1ab2:	460b      	moveq	r3, r1
    1ab4:	4418      	add	r0, r3
    1ab6:	6010      	str	r0, [r2, #0]
    1ab8:	4618      	mov	r0, r3
    1aba:	4770      	bx	lr
    1abc:	00c4      	lsls	r4, r0, #3
    1abe:	2000      	movs	r0, #0
    1ac0:	03d8      	lsls	r0, r3, #15
    1ac2:	2000      	movs	r0, #0
    1ac4:	e7fe      	b.n	0x1ac4
    1ac6:	bf00      	nop
    1ac8:	b5f8      	push	{r3, r4, r5, r6, r7, lr}
    1aca:	bf00      	nop
    1acc:	bcf8      	pop	{r3, r4, r5, r6, r7}
    1ace:	bc08      	pop	{r3}
    1ad0:	469e      	mov	lr, r3
    1ad2:	4770      	bx	lr
    1ad4:	b5f8      	push	{r3, r4, r5, r6, r7, lr}
    1ad6:	bf00      	nop
    1ad8:	bcf8      	pop	{r3, r4, r5, r6, r7}
    1ada:	bc08      	pop	{r3}
    1adc:	469e      	mov	lr, r3
    1ade:	4770      	bx	lr
    1ae0:	6f63      	ldr	r3, [r4, #116]	; 0x74
    1ae2:	6564      	str	r4, [r4, #84]	; 0x54
    1ae4:	7320      	strb	r0, [r4, #12]
    1ae6:	7a69      	ldrb	r1, [r5, #9]
    1ae8:	2065      	movs	r0, #101	; 0x65
    1aea:	6425      	str	r5, [r4, #64]	; 0x40
    1aec:	000a      	movs	r2, r1
    1aee:	0000      	movs	r0, r0
    1af0:	616c      	str	r4, [r5, #20]
    1af2:	6e75      	ldr	r5, [r6, #100]	; 0x64
    1af4:	6863      	ldr	r3, [r4, #4]
    1af6:	6120      	str	r0, [r4, #16]
    1af8:	6464      	str	r4, [r4, #68]	; 0x44
    1afa:	6572      	str	r2, [r6, #84]	; 0x54
    1afc:	7373      	strb	r3, [r6, #13]
    1afe:	7220      	strb	r0, [r4, #8]
    1b00:	6165      	str	r5, [r4, #20]
    1b02:	3a64      	subs	r2, #100	; 0x64
    1b04:	3020      	adds	r0, #32
    1b06:	2578      	movs	r5, #120	; 0x78
    1b08:	0a58      	lsrs	r0, r3, #9
    1b0a:	0000      	movs	r0, r0
    1b0c:	6170      	str	r0, [r6, #20]
    1b0e:	6567      	str	r7, [r4, #84]	; 0x54
    1b10:	7320      	strb	r0, [r4, #12]
    1b12:	7a69      	ldrb	r1, [r5, #9]
    1b14:	2065      	movs	r0, #101	; 0x65
    1b16:	6425      	str	r5, [r4, #64]	; 0x40
    1b18:	202c      	movs	r0, #44	; 0x2c
    1b1a:	7473      	strb	r3, [r6, #17]
    1b1c:	7261      	strb	r1, [r4, #9]
    1b1e:	2074      	movs	r0, #116	; 0x74
    1b20:	6170      	str	r0, [r6, #20]
    1b22:	6567      	str	r7, [r4, #84]	; 0x54
    1b24:	2520      	movs	r5, #32
    1b26:	2c64      	cmp	r4, #100	; 0x64
    1b28:	6520      	str	r0, [r4, #80]	; 0x50
    1b2a:	646e      	str	r6, [r5, #68]	; 0x44
    1b2c:	7020      	strb	r0, [r4, #0]
    1b2e:	6761      	str	r1, [r4, #116]	; 0x74
    1b30:	2065      	movs	r0, #101	; 0x65
    1b32:	6425      	str	r5, [r4, #64]	; 0x40
    1b34:	000a      	movs	r2, r1
    1b36:	0000      	movs	r0, r0
    1b38:	616c      	str	r4, [r5, #20]
    1b3a:	6e75      	ldr	r5, [r6, #100]	; 0x64
    1b3c:	6863      	ldr	r3, [r4, #4]
    1b3e:	6120      	str	r0, [r4, #16]
    1b40:	6464      	str	r4, [r4, #68]	; 0x44
    1b42:	6572      	str	r2, [r6, #84]	; 0x54
    1b44:	7373      	strb	r3, [r6, #13]
    1b46:	6320      	str	r0, [r4, #48]	; 0x30
    1b48:	6c61      	ldr	r1, [r4, #68]	; 0x44
    1b4a:	3a63      	subs	r2, #99	; 0x63
    1b4c:	3020      	adds	r0, #32
    1b4e:	2578      	movs	r5, #120	; 0x78
    1b50:	0a58      	lsrs	r0, r3, #9
    1b52:	0000      	movs	r0, r0
    1b54:	616c      	str	r4, [r5, #20]
    1b56:	6e75      	ldr	r5, [r6, #100]	; 0x64
    1b58:	6863      	ldr	r3, [r4, #4]
    1b5a:	6120      	str	r0, [r4, #16]
    1b5c:	6464      	str	r4, [r4, #68]	; 0x44
    1b5e:	6572      	str	r2, [r6, #84]	; 0x54
    1b60:	7373      	strb	r3, [r6, #13]
    1b62:	6120      	str	r0, [r4, #16]
    1b64:	7466      	strb	r6, [r4, #17]
    1b66:	7265      	strb	r5, [r4, #9]
    1b68:	7720      	strb	r0, [r4, #28]
    1b6a:	6972      	ldr	r2, [r6, #20]
    1b6c:	6574      	str	r4, [r6, #84]	; 0x54
    1b6e:	203a      	movs	r0, #58	; 0x3a
    1b70:	7830      	ldrb	r0, [r6, #0]
    1b72:	5825      	ldr	r5, [r4, r0]
    1b74:	000a      	movs	r2, r1
    1b76:	0000      	movs	r0, r0
    1b78:	6f62      	ldr	r2, [r4, #116]	; 0x74
    1b7a:	746f      	strb	r7, [r5, #17]
    1b7c:	7320      	strb	r0, [r4, #12]
    1b7e:	6174      	str	r4, [r6, #20]
    1b80:	7472      	strb	r2, [r6, #17]
    1b82:	000a      	movs	r2, r1
    1b84:	6572      	str	r2, [r6, #84]	; 0x54
    1b86:	6573      	str	r3, [r6, #84]	; 0x54
    1b88:	7474      	strb	r4, [r6, #17]
    1b8a:	6e69      	ldr	r1, [r5, #100]	; 0x64
    1b8c:	2e67      	cmp	r6, #103	; 0x67
    1b8e:	2e2e      	cmp	r6, #46	; 0x2e
    1b90:	000a      	movs	r2, r1
    1b92:	0000      	movs	r0, r0
    1b94:	0010      	movs	r0, r2
    1b96:	2000      	movs	r0, #0
    1b98:	2d23      	cmp	r5, #35	; 0x23
    1b9a:	2b30      	cmp	r3, #48	; 0x30
    1b9c:	0020      	movs	r0, r4
    1b9e:	6c68      	ldr	r0, [r5, #68]	; 0x44
    1ba0:	004c      	lsls	r4, r1, #1
    1ba2:	6665      	str	r5, [r4, #100]	; 0x64
    1ba4:	4567      	cmp	r7, ip
    1ba6:	4746      	bx	r8
    1ba8:	3000      	adds	r0, #0
    1baa:	3231      	adds	r2, #49	; 0x31
    1bac:	3433      	adds	r4, #51	; 0x33
    1bae:	3635      	adds	r6, #53	; 0x35
    1bb0:	3837      	subs	r0, #55	; 0x37
    1bb2:	4139      	asrs	r1, r7
    1bb4:	4342      	muls	r2, r0
    1bb6:	4544      	cmp	r4, r8
    1bb8:	0046      	lsls	r6, r0, #1
    1bba:	3130      	adds	r1, #48	; 0x30
    1bbc:	3332      	adds	r3, #50	; 0x32
    1bbe:	3534      	adds	r5, #52	; 0x34
    1bc0:	3736      	adds	r7, #54	; 0x36
    1bc2:	3938      	subs	r1, #56	; 0x38
    1bc4:	6261      	str	r1, [r4, #36]	; 0x24
    1bc6:	6463      	str	r3, [r4, #68]	; 0x44
    1bc8:	6665      	str	r5, [r4, #100]	; 0x64
    1bca:	0000      	movs	r0, r0
    1bcc:	0000      	movs	r0, r0
    1bce:	0000      	movs	r0, r0
    1bd0:	e670      	b.n	0x18b4
    1bd2:	7fff      	ldrb	r7, [r7, #31]
    1bd4:	0001      	movs	r1, r0
    1bd6:	0000      	movs	r0, r0
    1bd8:	00ff      	lsls	r7, r7, #3
    1bda:	0000      	movs	r0, r0
    1bdc:	0001      	movs	r1, r0
    1bde:	0000      	movs	r0, r0
    1be0:	9000      	str	r0, [sp, #0]
    1be2:	03d0      	lsls	r0, r2, #15
    1be4:	0010      	movs	r0, r2
    1be6:	2000      	movs	r0, #0
	...
    1c48:	0225      	lsls	r5, r4, #8
    1c4a:	0000      	movs	r0, r0
    1c4c:	0201      	lsls	r1, r0, #8
	...
