Archive member included to satisfy reference by file (symbol)

/home/the_3d6/devtools/gcc-arm-none-eabi-8-2018-q4-major/bin/../lib/gcc/arm-none-eabi/8.2.1/../../../../arm-none-eabi/lib/thumb/v7e-m+fp/hard/libc_nano.a(lib_a-exit.o)
                              /home/the_3d6/devtools/gcc-arm-none-eabi-8-2018-q4-major/bin/../lib/gcc/arm-none-eabi/8.2.1/../../../../arm-none-eabi/lib/thumb/v7e-m+fp/hard/crt0.o (exit)
/home/the_3d6/devtools/gcc-arm-none-eabi-8-2018-q4-major/bin/../lib/gcc/arm-none-eabi/8.2.1/../../../../arm-none-eabi/lib/thumb/v7e-m+fp/hard/libc_nano.a(lib_a-impure.o)
                              /home/the_3d6/devtools/gcc-arm-none-eabi-8-2018-q4-major/bin/../lib/gcc/arm-none-eabi/8.2.1/../../../../arm-none-eabi/lib/thumb/v7e-m+fp/hard/libc_nano.a(lib_a-exit.o) (_global_impure_ptr)
/home/the_3d6/devtools/gcc-arm-none-eabi-8-2018-q4-major/bin/../lib/gcc/arm-none-eabi/8.2.1/../../../../arm-none-eabi/lib/thumb/v7e-m+fp/hard/libc_nano.a(lib_a-init.o)
                              /home/the_3d6/devtools/gcc-arm-none-eabi-8-2018-q4-major/bin/../lib/gcc/arm-none-eabi/8.2.1/../../../../arm-none-eabi/lib/thumb/v7e-m+fp/hard/crt0.o (__libc_init_array)
/home/the_3d6/devtools/gcc-arm-none-eabi-8-2018-q4-major/bin/../lib/gcc/arm-none-eabi/8.2.1/../../../../arm-none-eabi/lib/thumb/v7e-m+fp/hard/libc_nano.a(lib_a-memset.o)
                              /home/the_3d6/devtools/gcc-arm-none-eabi-8-2018-q4-major/bin/../lib/gcc/arm-none-eabi/8.2.1/../../../../arm-none-eabi/lib/thumb/v7e-m+fp/hard/crt0.o (memset)
/home/the_3d6/devtools/gcc-arm-none-eabi-8-2018-q4-major/bin/../lib/gcc/arm-none-eabi/8.2.1/../../../../arm-none-eabi/lib/thumb/v7e-m+fp/hard/libc_nano.a(lib_a-vsnprintf.o)
                              build//uboot/uart_interface.c.o (vsnprintf)
/home/the_3d6/devtools/gcc-arm-none-eabi-8-2018-q4-major/bin/../lib/gcc/arm-none-eabi/8.2.1/../../../../arm-none-eabi/lib/thumb/v7e-m+fp/hard/libc_nano.a(lib_a-nano-svfprintf.o)
                              /home/the_3d6/devtools/gcc-arm-none-eabi-8-2018-q4-major/bin/../lib/gcc/arm-none-eabi/8.2.1/../../../../arm-none-eabi/lib/thumb/v7e-m+fp/hard/libc_nano.a(lib_a-vsnprintf.o) (_svfprintf_r)
/home/the_3d6/devtools/gcc-arm-none-eabi-8-2018-q4-major/bin/../lib/gcc/arm-none-eabi/8.2.1/../../../../arm-none-eabi/lib/thumb/v7e-m+fp/hard/libc_nano.a(lib_a-nano-vfprintf_i.o)
                              /home/the_3d6/devtools/gcc-arm-none-eabi-8-2018-q4-major/bin/../lib/gcc/arm-none-eabi/8.2.1/../../../../arm-none-eabi/lib/thumb/v7e-m+fp/hard/libc_nano.a(lib_a-nano-svfprintf.o) (_printf_i)
/home/the_3d6/devtools/gcc-arm-none-eabi-8-2018-q4-major/bin/../lib/gcc/arm-none-eabi/8.2.1/../../../../arm-none-eabi/lib/thumb/v7e-m+fp/hard/libc_nano.a(lib_a-memchr.o)
                              /home/the_3d6/devtools/gcc-arm-none-eabi-8-2018-q4-major/bin/../lib/gcc/arm-none-eabi/8.2.1/../../../../arm-none-eabi/lib/thumb/v7e-m+fp/hard/libc_nano.a(lib_a-nano-svfprintf.o) (memchr)
/home/the_3d6/devtools/gcc-arm-none-eabi-8-2018-q4-major/bin/../lib/gcc/arm-none-eabi/8.2.1/../../../../arm-none-eabi/lib/thumb/v7e-m+fp/hard/libc_nano.a(lib_a-memcpy-stub.o)
                              /home/the_3d6/devtools/gcc-arm-none-eabi-8-2018-q4-major/bin/../lib/gcc/arm-none-eabi/8.2.1/../../../../arm-none-eabi/lib/thumb/v7e-m+fp/hard/libc_nano.a(lib_a-nano-svfprintf.o) (memcpy)
/home/the_3d6/devtools/gcc-arm-none-eabi-8-2018-q4-major/bin/../lib/gcc/arm-none-eabi/8.2.1/../../../../arm-none-eabi/lib/thumb/v7e-m+fp/hard/libc_nano.a(lib_a-memmove.o)
                              /home/the_3d6/devtools/gcc-arm-none-eabi-8-2018-q4-major/bin/../lib/gcc/arm-none-eabi/8.2.1/../../../../arm-none-eabi/lib/thumb/v7e-m+fp/hard/libc_nano.a(lib_a-nano-svfprintf.o) (memmove)
/home/the_3d6/devtools/gcc-arm-none-eabi-8-2018-q4-major/bin/../lib/gcc/arm-none-eabi/8.2.1/../../../../arm-none-eabi/lib/thumb/v7e-m+fp/hard/libc_nano.a(lib_a-nano-freer.o)
                              /home/the_3d6/devtools/gcc-arm-none-eabi-8-2018-q4-major/bin/../lib/gcc/arm-none-eabi/8.2.1/../../../../arm-none-eabi/lib/thumb/v7e-m+fp/hard/libc_nano.a(lib_a-nano-svfprintf.o) (_free_r)
/home/the_3d6/devtools/gcc-arm-none-eabi-8-2018-q4-major/bin/../lib/gcc/arm-none-eabi/8.2.1/../../../../arm-none-eabi/lib/thumb/v7e-m+fp/hard/libc_nano.a(lib_a-nano-mallocr.o)
                              /home/the_3d6/devtools/gcc-arm-none-eabi-8-2018-q4-major/bin/../lib/gcc/arm-none-eabi/8.2.1/../../../../arm-none-eabi/lib/thumb/v7e-m+fp/hard/libc_nano.a(lib_a-nano-svfprintf.o) (_malloc_r)
/home/the_3d6/devtools/gcc-arm-none-eabi-8-2018-q4-major/bin/../lib/gcc/arm-none-eabi/8.2.1/../../../../arm-none-eabi/lib/thumb/v7e-m+fp/hard/libc_nano.a(lib_a-nano-reallocr.o)
                              /home/the_3d6/devtools/gcc-arm-none-eabi-8-2018-q4-major/bin/../lib/gcc/arm-none-eabi/8.2.1/../../../../arm-none-eabi/lib/thumb/v7e-m+fp/hard/libc_nano.a(lib_a-nano-svfprintf.o) (_realloc_r)
/home/the_3d6/devtools/gcc-arm-none-eabi-8-2018-q4-major/bin/../lib/gcc/arm-none-eabi/8.2.1/../../../../arm-none-eabi/lib/thumb/v7e-m+fp/hard/libc_nano.a(lib_a-sbrkr.o)
                              /home/the_3d6/devtools/gcc-arm-none-eabi-8-2018-q4-major/bin/../lib/gcc/arm-none-eabi/8.2.1/../../../../arm-none-eabi/lib/thumb/v7e-m+fp/hard/libc_nano.a(lib_a-nano-mallocr.o) (_sbrk_r)
/home/the_3d6/devtools/gcc-arm-none-eabi-8-2018-q4-major/bin/../lib/gcc/arm-none-eabi/8.2.1/../../../../arm-none-eabi/lib/thumb/v7e-m+fp/hard/libc_nano.a(lib_a-mlock.o)
                              /home/the_3d6/devtools/gcc-arm-none-eabi-8-2018-q4-major/bin/../lib/gcc/arm-none-eabi/8.2.1/../../../../arm-none-eabi/lib/thumb/v7e-m+fp/hard/libc_nano.a(lib_a-nano-freer.o) (__malloc_lock)
/home/the_3d6/devtools/gcc-arm-none-eabi-8-2018-q4-major/bin/../lib/gcc/arm-none-eabi/8.2.1/../../../../arm-none-eabi/lib/thumb/v7e-m+fp/hard/libc_nano.a(lib_a-nano-msizer.o)
                              /home/the_3d6/devtools/gcc-arm-none-eabi-8-2018-q4-major/bin/../lib/gcc/arm-none-eabi/8.2.1/../../../../arm-none-eabi/lib/thumb/v7e-m+fp/hard/libc_nano.a(lib_a-nano-reallocr.o) (_malloc_usable_size_r)
/home/the_3d6/devtools/gcc-arm-none-eabi-8-2018-q4-major/bin/../lib/gcc/arm-none-eabi/8.2.1/../../../../arm-none-eabi/lib/thumb/v7e-m+fp/hard/libc_nano.a(lib_a-reent.o)
                              /home/the_3d6/devtools/gcc-arm-none-eabi-8-2018-q4-major/bin/../lib/gcc/arm-none-eabi/8.2.1/../../../../arm-none-eabi/lib/thumb/v7e-m+fp/hard/libc_nano.a(lib_a-sbrkr.o) (errno)
/home/the_3d6/devtools/gcc-arm-none-eabi-8-2018-q4-major/bin/../lib/gcc/arm-none-eabi/8.2.1/../../../../arm-none-eabi/lib/thumb/v7e-m+fp/hard/libc_nano.a(lib_a-lock.o)
                              /home/the_3d6/devtools/gcc-arm-none-eabi-8-2018-q4-major/bin/../lib/gcc/arm-none-eabi/8.2.1/../../../../arm-none-eabi/lib/thumb/v7e-m+fp/hard/libc_nano.a(lib_a-mlock.o) (__retarget_lock_acquire_recursive)
/home/the_3d6/devtools/gcc-arm-none-eabi-8-2018-q4-major/bin/../lib/gcc/arm-none-eabi/8.2.1/../../../../arm-none-eabi/lib/thumb/v7e-m+fp/hard/libnosys.a(sbrk.o)
                              /home/the_3d6/devtools/gcc-arm-none-eabi-8-2018-q4-major/bin/../lib/gcc/arm-none-eabi/8.2.1/../../../../arm-none-eabi/lib/thumb/v7e-m+fp/hard/libc_nano.a(lib_a-sbrkr.o) (_sbrk)
/home/the_3d6/devtools/gcc-arm-none-eabi-8-2018-q4-major/bin/../lib/gcc/arm-none-eabi/8.2.1/../../../../arm-none-eabi/lib/thumb/v7e-m+fp/hard/libnosys.a(_exit.o)
                              /home/the_3d6/devtools/gcc-arm-none-eabi-8-2018-q4-major/bin/../lib/gcc/arm-none-eabi/8.2.1/../../../../arm-none-eabi/lib/thumb/v7e-m+fp/hard/libc_nano.a(lib_a-exit.o) (_exit)

Allocating common symbols
Common symbol       size              file

__lock___atexit_recursive_mutex
                    0x1               /home/the_3d6/devtools/gcc-arm-none-eabi-8-2018-q4-major/bin/../lib/gcc/arm-none-eabi/8.2.1/../../../../arm-none-eabi/lib/thumb/v7e-m+fp/hard/libc_nano.a(lib_a-lock.o)
__lock___arc4random_mutex
                    0x1               /home/the_3d6/devtools/gcc-arm-none-eabi-8-2018-q4-major/bin/../lib/gcc/arm-none-eabi/8.2.1/../../../../arm-none-eabi/lib/thumb/v7e-m+fp/hard/libc_nano.a(lib_a-lock.o)
pack_resp           0x10              build//uboot/main.c.o
errno               0x4               /home/the_3d6/devtools/gcc-arm-none-eabi-8-2018-q4-major/bin/../lib/gcc/arm-none-eabi/8.2.1/../../../../arm-none-eabi/lib/thumb/v7e-m+fp/hard/libc_nano.a(lib_a-reent.o)
uart_in_packet      0x12c             build//uboot/main.c.o
__lock___env_recursive_mutex
                    0x1               /home/the_3d6/devtools/gcc-arm-none-eabi-8-2018-q4-major/bin/../lib/gcc/arm-none-eabi/8.2.1/../../../../arm-none-eabi/lib/thumb/v7e-m+fp/hard/libc_nano.a(lib_a-lock.o)
__lock___sinit_recursive_mutex
                    0x1               /home/the_3d6/devtools/gcc-arm-none-eabi-8-2018-q4-major/bin/../lib/gcc/arm-none-eabi/8.2.1/../../../../arm-none-eabi/lib/thumb/v7e-m+fp/hard/libc_nano.a(lib_a-lock.o)
uart_buf            0x102             build//uboot/uart_interface.c.o
__lock___malloc_recursive_mutex
                    0x1               /home/the_3d6/devtools/gcc-arm-none-eabi-8-2018-q4-major/bin/../lib/gcc/arm-none-eabi/8.2.1/../../../../arm-none-eabi/lib/thumb/v7e-m+fp/hard/libc_nano.a(lib_a-lock.o)
radio_resp          0x10              build//uboot/main.c.o
umsg                0x100             build//uboot/uart_interface.c.o
tx_packet           0x100             build//uboot/fast_radio.c.o
__lock___at_quick_exit_mutex
                    0x1               /home/the_3d6/devtools/gcc-arm-none-eabi-8-2018-q4-major/bin/../lib/gcc/arm-none-eabi/8.2.1/../../../../arm-none-eabi/lib/thumb/v7e-m+fp/hard/libc_nano.a(lib_a-lock.o)
rx_packet           0x100             build//uboot/fast_radio.c.o
send_buf            0x100             build//uboot/uart_interface.c.o
__lock___dd_hash_mutex
                    0x1               /home/the_3d6/devtools/gcc-arm-none-eabi-8-2018-q4-major/bin/../lib/gcc/arm-none-eabi/8.2.1/../../../../arm-none-eabi/lib/thumb/v7e-m+fp/hard/libc_nano.a(lib_a-lock.o)
__lock___tz_mutex   0x1               /home/the_3d6/devtools/gcc-arm-none-eabi-8-2018-q4-major/bin/../lib/gcc/arm-none-eabi/8.2.1/../../../../arm-none-eabi/lib/thumb/v7e-m+fp/hard/libc_nano.a(lib_a-lock.o)
__lock___sfp_recursive_mutex
                    0x1               /home/the_3d6/devtools/gcc-arm-none-eabi-8-2018-q4-major/bin/../lib/gcc/arm-none-eabi/8.2.1/../../../../arm-none-eabi/lib/thumb/v7e-m+fp/hard/libc_nano.a(lib_a-lock.o)

Discarded input sections

 .text          0x0000000000000000        0x0 /home/the_3d6/devtools/gcc-arm-none-eabi-8-2018-q4-major/bin/../lib/gcc/arm-none-eabi/8.2.1/thumb/v7e-m+fp/hard/crti.o
 .data          0x0000000000000000        0x0 /home/the_3d6/devtools/gcc-arm-none-eabi-8-2018-q4-major/bin/../lib/gcc/arm-none-eabi/8.2.1/thumb/v7e-m+fp/hard/crti.o
 .bss           0x0000000000000000        0x0 /home/the_3d6/devtools/gcc-arm-none-eabi-8-2018-q4-major/bin/../lib/gcc/arm-none-eabi/8.2.1/thumb/v7e-m+fp/hard/crti.o
 .data          0x0000000000000000        0x4 /home/the_3d6/devtools/gcc-arm-none-eabi-8-2018-q4-major/bin/../lib/gcc/arm-none-eabi/8.2.1/thumb/v7e-m+fp/hard/crtbegin.o
 .data          0x0000000000000000        0x0 /home/the_3d6/devtools/gcc-arm-none-eabi-8-2018-q4-major/bin/../lib/gcc/arm-none-eabi/8.2.1/../../../../arm-none-eabi/lib/thumb/v7e-m+fp/hard/crt0.o
 .bss           0x0000000000000000        0x0 /home/the_3d6/devtools/gcc-arm-none-eabi-8-2018-q4-major/bin/../lib/gcc/arm-none-eabi/8.2.1/../../../../arm-none-eabi/lib/thumb/v7e-m+fp/hard/crt0.o
 .ARM.extab     0x0000000000000000        0x0 /home/the_3d6/devtools/gcc-arm-none-eabi-8-2018-q4-major/bin/../lib/gcc/arm-none-eabi/8.2.1/../../../../arm-none-eabi/lib/thumb/v7e-m+fp/hard/crt0.o
 .text          0x0000000000000000        0x0 build//uboot/main.c.o
 .data          0x0000000000000000        0x0 build//uboot/main.c.o
 .bss           0x0000000000000000        0x0 build//uboot/main.c.o
 .text.process_boot_update
                0x0000000000000000      0x288 build//uboot/main.c.o
 .text          0x0000000000000000        0x0 build//uboot/timer_core.c.o
 .data          0x0000000000000000        0x0 build//uboot/timer_core.c.o
 .bss           0x0000000000000000        0x0 build//uboot/timer_core.c.o
 .text.NVIC_DisableIRQ
                0x0000000000000000       0x34 build//uboot/timer_core.c.o
 .bss.phase     0x0000000000000000        0x1 build//uboot/timer_core.c.o
 .text.pause_time
                0x0000000000000000       0x18 build//uboot/timer_core.c.o
 .text.resume_time
                0x0000000000000000       0x18 build//uboot/timer_core.c.o
 .text.seconds  0x0000000000000000       0x18 build//uboot/timer_core.c.o
 .text.shutdown_time
                0x0000000000000000       0x24 build//uboot/timer_core.c.o
 .text.powerup_time
                0x0000000000000000       0x24 build//uboot/timer_core.c.o
 .text          0x0000000000000000        0x0 build//uboot/fast_radio.c.o
 .data          0x0000000000000000        0x0 build//uboot/fast_radio.c.o
 .bss           0x0000000000000000        0x0 build//uboot/fast_radio.c.o
 .text.fr_mode_tx_only
                0x0000000000000000       0x54 build//uboot/fast_radio.c.o
 .text.fr_send  0x0000000000000000       0x50 build//uboot/fast_radio.c.o
 .text.fr_get_irq_cnt
                0x0000000000000000       0x18 build//uboot/fast_radio.c.o
 .text          0x0000000000000000        0x0 build//uboot/uart_interface.c.o
 .data          0x0000000000000000        0x0 build//uboot/uart_interface.c.o
 .bss           0x0000000000000000        0x0 build//uboot/uart_interface.c.o
 .text.uart_send_remains
                0x0000000000000000       0x4c build//uboot/uart_interface.c.o
 .data          0x0000000000000000        0x0 build//uboot/gcc_startup_nrf52832_bootloader.S.o
 .bss           0x0000000000000000        0x0 build//uboot/gcc_startup_nrf52832_bootloader.S.o
 .text          0x0000000000000000        0x0 /home/the_3d6/devtools/gcc-arm-none-eabi-8-2018-q4-major/bin/../lib/gcc/arm-none-eabi/8.2.1/../../../../arm-none-eabi/lib/thumb/v7e-m+fp/hard/libc_nano.a(lib_a-exit.o)
 .data          0x0000000000000000        0x0 /home/the_3d6/devtools/gcc-arm-none-eabi-8-2018-q4-major/bin/../lib/gcc/arm-none-eabi/8.2.1/../../../../arm-none-eabi/lib/thumb/v7e-m+fp/hard/libc_nano.a(lib_a-exit.o)
 .bss           0x0000000000000000        0x0 /home/the_3d6/devtools/gcc-arm-none-eabi-8-2018-q4-major/bin/../lib/gcc/arm-none-eabi/8.2.1/../../../../arm-none-eabi/lib/thumb/v7e-m+fp/hard/libc_nano.a(lib_a-exit.o)
 .text          0x0000000000000000        0x0 /home/the_3d6/devtools/gcc-arm-none-eabi-8-2018-q4-major/bin/../lib/gcc/arm-none-eabi/8.2.1/../../../../arm-none-eabi/lib/thumb/v7e-m+fp/hard/libc_nano.a(lib_a-impure.o)
 .data          0x0000000000000000        0x0 /home/the_3d6/devtools/gcc-arm-none-eabi-8-2018-q4-major/bin/../lib/gcc/arm-none-eabi/8.2.1/../../../../arm-none-eabi/lib/thumb/v7e-m+fp/hard/libc_nano.a(lib_a-impure.o)
 .bss           0x0000000000000000        0x0 /home/the_3d6/devtools/gcc-arm-none-eabi-8-2018-q4-major/bin/../lib/gcc/arm-none-eabi/8.2.1/../../../../arm-none-eabi/lib/thumb/v7e-m+fp/hard/libc_nano.a(lib_a-impure.o)
 .text          0x0000000000000000        0x0 /home/the_3d6/devtools/gcc-arm-none-eabi-8-2018-q4-major/bin/../lib/gcc/arm-none-eabi/8.2.1/../../../../arm-none-eabi/lib/thumb/v7e-m+fp/hard/libc_nano.a(lib_a-init.o)
 .data          0x0000000000000000        0x0 /home/the_3d6/devtools/gcc-arm-none-eabi-8-2018-q4-major/bin/../lib/gcc/arm-none-eabi/8.2.1/../../../../arm-none-eabi/lib/thumb/v7e-m+fp/hard/libc_nano.a(lib_a-init.o)
 .bss           0x0000000000000000        0x0 /home/the_3d6/devtools/gcc-arm-none-eabi-8-2018-q4-major/bin/../lib/gcc/arm-none-eabi/8.2.1/../../../../arm-none-eabi/lib/thumb/v7e-m+fp/hard/libc_nano.a(lib_a-init.o)
 .text          0x0000000000000000        0x0 /home/the_3d6/devtools/gcc-arm-none-eabi-8-2018-q4-major/bin/../lib/gcc/arm-none-eabi/8.2.1/../../../../arm-none-eabi/lib/thumb/v7e-m+fp/hard/libc_nano.a(lib_a-memset.o)
 .data          0x0000000000000000        0x0 /home/the_3d6/devtools/gcc-arm-none-eabi-8-2018-q4-major/bin/../lib/gcc/arm-none-eabi/8.2.1/../../../../arm-none-eabi/lib/thumb/v7e-m+fp/hard/libc_nano.a(lib_a-memset.o)
 .bss           0x0000000000000000        0x0 /home/the_3d6/devtools/gcc-arm-none-eabi-8-2018-q4-major/bin/../lib/gcc/arm-none-eabi/8.2.1/../../../../arm-none-eabi/lib/thumb/v7e-m+fp/hard/libc_nano.a(lib_a-memset.o)
 .text          0x0000000000000000        0x0 /home/the_3d6/devtools/gcc-arm-none-eabi-8-2018-q4-major/bin/../lib/gcc/arm-none-eabi/8.2.1/../../../../arm-none-eabi/lib/thumb/v7e-m+fp/hard/libc_nano.a(lib_a-vsnprintf.o)
 .data          0x0000000000000000        0x0 /home/the_3d6/devtools/gcc-arm-none-eabi-8-2018-q4-major/bin/../lib/gcc/arm-none-eabi/8.2.1/../../../../arm-none-eabi/lib/thumb/v7e-m+fp/hard/libc_nano.a(lib_a-vsnprintf.o)
 .bss           0x0000000000000000        0x0 /home/the_3d6/devtools/gcc-arm-none-eabi-8-2018-q4-major/bin/../lib/gcc/arm-none-eabi/8.2.1/../../../../arm-none-eabi/lib/thumb/v7e-m+fp/hard/libc_nano.a(lib_a-vsnprintf.o)
 .text          0x0000000000000000        0x0 /home/the_3d6/devtools/gcc-arm-none-eabi-8-2018-q4-major/bin/../lib/gcc/arm-none-eabi/8.2.1/../../../../arm-none-eabi/lib/thumb/v7e-m+fp/hard/libc_nano.a(lib_a-nano-svfprintf.o)
 .data          0x0000000000000000        0x0 /home/the_3d6/devtools/gcc-arm-none-eabi-8-2018-q4-major/bin/../lib/gcc/arm-none-eabi/8.2.1/../../../../arm-none-eabi/lib/thumb/v7e-m+fp/hard/libc_nano.a(lib_a-nano-svfprintf.o)
 .bss           0x0000000000000000        0x0 /home/the_3d6/devtools/gcc-arm-none-eabi-8-2018-q4-major/bin/../lib/gcc/arm-none-eabi/8.2.1/../../../../arm-none-eabi/lib/thumb/v7e-m+fp/hard/libc_nano.a(lib_a-nano-svfprintf.o)
 .text.__ssprint_r
                0x0000000000000000       0xf0 /home/the_3d6/devtools/gcc-arm-none-eabi-8-2018-q4-major/bin/../lib/gcc/arm-none-eabi/8.2.1/../../../../arm-none-eabi/lib/thumb/v7e-m+fp/hard/libc_nano.a(lib_a-nano-svfprintf.o)
 .text          0x0000000000000000        0x0 /home/the_3d6/devtools/gcc-arm-none-eabi-8-2018-q4-major/bin/../lib/gcc/arm-none-eabi/8.2.1/../../../../arm-none-eabi/lib/thumb/v7e-m+fp/hard/libc_nano.a(lib_a-nano-vfprintf_i.o)
 .data          0x0000000000000000        0x0 /home/the_3d6/devtools/gcc-arm-none-eabi-8-2018-q4-major/bin/../lib/gcc/arm-none-eabi/8.2.1/../../../../arm-none-eabi/lib/thumb/v7e-m+fp/hard/libc_nano.a(lib_a-nano-vfprintf_i.o)
 .bss           0x0000000000000000        0x0 /home/the_3d6/devtools/gcc-arm-none-eabi-8-2018-q4-major/bin/../lib/gcc/arm-none-eabi/8.2.1/../../../../arm-none-eabi/lib/thumb/v7e-m+fp/hard/libc_nano.a(lib_a-nano-vfprintf_i.o)
 .data          0x0000000000000000        0x0 /home/the_3d6/devtools/gcc-arm-none-eabi-8-2018-q4-major/bin/../lib/gcc/arm-none-eabi/8.2.1/../../../../arm-none-eabi/lib/thumb/v7e-m+fp/hard/libc_nano.a(lib_a-memchr.o)
 .bss           0x0000000000000000        0x0 /home/the_3d6/devtools/gcc-arm-none-eabi-8-2018-q4-major/bin/../lib/gcc/arm-none-eabi/8.2.1/../../../../arm-none-eabi/lib/thumb/v7e-m+fp/hard/libc_nano.a(lib_a-memchr.o)
 .text          0x0000000000000000        0x0 /home/the_3d6/devtools/gcc-arm-none-eabi-8-2018-q4-major/bin/../lib/gcc/arm-none-eabi/8.2.1/../../../../arm-none-eabi/lib/thumb/v7e-m+fp/hard/libc_nano.a(lib_a-memcpy-stub.o)
 .data          0x0000000000000000        0x0 /home/the_3d6/devtools/gcc-arm-none-eabi-8-2018-q4-major/bin/../lib/gcc/arm-none-eabi/8.2.1/../../../../arm-none-eabi/lib/thumb/v7e-m+fp/hard/libc_nano.a(lib_a-memcpy-stub.o)
 .bss           0x0000000000000000        0x0 /home/the_3d6/devtools/gcc-arm-none-eabi-8-2018-q4-major/bin/../lib/gcc/arm-none-eabi/8.2.1/../../../../arm-none-eabi/lib/thumb/v7e-m+fp/hard/libc_nano.a(lib_a-memcpy-stub.o)
 .text          0x0000000000000000        0x0 /home/the_3d6/devtools/gcc-arm-none-eabi-8-2018-q4-major/bin/../lib/gcc/arm-none-eabi/8.2.1/../../../../arm-none-eabi/lib/thumb/v7e-m+fp/hard/libc_nano.a(lib_a-memmove.o)
 .data          0x0000000000000000        0x0 /home/the_3d6/devtools/gcc-arm-none-eabi-8-2018-q4-major/bin/../lib/gcc/arm-none-eabi/8.2.1/../../../../arm-none-eabi/lib/thumb/v7e-m+fp/hard/libc_nano.a(lib_a-memmove.o)
 .bss           0x0000000000000000        0x0 /home/the_3d6/devtools/gcc-arm-none-eabi-8-2018-q4-major/bin/../lib/gcc/arm-none-eabi/8.2.1/../../../../arm-none-eabi/lib/thumb/v7e-m+fp/hard/libc_nano.a(lib_a-memmove.o)
 .text          0x0000000000000000        0x0 /home/the_3d6/devtools/gcc-arm-none-eabi-8-2018-q4-major/bin/../lib/gcc/arm-none-eabi/8.2.1/../../../../arm-none-eabi/lib/thumb/v7e-m+fp/hard/libc_nano.a(lib_a-nano-freer.o)
 .data          0x0000000000000000        0x0 /home/the_3d6/devtools/gcc-arm-none-eabi-8-2018-q4-major/bin/../lib/gcc/arm-none-eabi/8.2.1/../../../../arm-none-eabi/lib/thumb/v7e-m+fp/hard/libc_nano.a(lib_a-nano-freer.o)
 .bss           0x0000000000000000        0x0 /home/the_3d6/devtools/gcc-arm-none-eabi-8-2018-q4-major/bin/../lib/gcc/arm-none-eabi/8.2.1/../../../../arm-none-eabi/lib/thumb/v7e-m+fp/hard/libc_nano.a(lib_a-nano-freer.o)
 .text          0x0000000000000000        0x0 /home/the_3d6/devtools/gcc-arm-none-eabi-8-2018-q4-major/bin/../lib/gcc/arm-none-eabi/8.2.1/../../../../arm-none-eabi/lib/thumb/v7e-m+fp/hard/libc_nano.a(lib_a-nano-mallocr.o)
 .data          0x0000000000000000        0x0 /home/the_3d6/devtools/gcc-arm-none-eabi-8-2018-q4-major/bin/../lib/gcc/arm-none-eabi/8.2.1/../../../../arm-none-eabi/lib/thumb/v7e-m+fp/hard/libc_nano.a(lib_a-nano-mallocr.o)
 .bss           0x0000000000000000        0x0 /home/the_3d6/devtools/gcc-arm-none-eabi-8-2018-q4-major/bin/../lib/gcc/arm-none-eabi/8.2.1/../../../../arm-none-eabi/lib/thumb/v7e-m+fp/hard/libc_nano.a(lib_a-nano-mallocr.o)
 .text          0x0000000000000000        0x0 /home/the_3d6/devtools/gcc-arm-none-eabi-8-2018-q4-major/bin/../lib/gcc/arm-none-eabi/8.2.1/../../../../arm-none-eabi/lib/thumb/v7e-m+fp/hard/libc_nano.a(lib_a-nano-reallocr.o)
 .data          0x0000000000000000        0x0 /home/the_3d6/devtools/gcc-arm-none-eabi-8-2018-q4-major/bin/../lib/gcc/arm-none-eabi/8.2.1/../../../../arm-none-eabi/lib/thumb/v7e-m+fp/hard/libc_nano.a(lib_a-nano-reallocr.o)
 .bss           0x0000000000000000        0x0 /home/the_3d6/devtools/gcc-arm-none-eabi-8-2018-q4-major/bin/../lib/gcc/arm-none-eabi/8.2.1/../../../../arm-none-eabi/lib/thumb/v7e-m+fp/hard/libc_nano.a(lib_a-nano-reallocr.o)
 .text          0x0000000000000000        0x0 /home/the_3d6/devtools/gcc-arm-none-eabi-8-2018-q4-major/bin/../lib/gcc/arm-none-eabi/8.2.1/../../../../arm-none-eabi/lib/thumb/v7e-m+fp/hard/libc_nano.a(lib_a-sbrkr.o)
 .data          0x0000000000000000        0x0 /home/the_3d6/devtools/gcc-arm-none-eabi-8-2018-q4-major/bin/../lib/gcc/arm-none-eabi/8.2.1/../../../../arm-none-eabi/lib/thumb/v7e-m+fp/hard/libc_nano.a(lib_a-sbrkr.o)
 .bss           0x0000000000000000        0x0 /home/the_3d6/devtools/gcc-arm-none-eabi-8-2018-q4-major/bin/../lib/gcc/arm-none-eabi/8.2.1/../../../../arm-none-eabi/lib/thumb/v7e-m+fp/hard/libc_nano.a(lib_a-sbrkr.o)
 .text          0x0000000000000000        0x0 /home/the_3d6/devtools/gcc-arm-none-eabi-8-2018-q4-major/bin/../lib/gcc/arm-none-eabi/8.2.1/../../../../arm-none-eabi/lib/thumb/v7e-m+fp/hard/libc_nano.a(lib_a-mlock.o)
 .data          0x0000000000000000        0x0 /home/the_3d6/devtools/gcc-arm-none-eabi-8-2018-q4-major/bin/../lib/gcc/arm-none-eabi/8.2.1/../../../../arm-none-eabi/lib/thumb/v7e-m+fp/hard/libc_nano.a(lib_a-mlock.o)
 .bss           0x0000000000000000        0x0 /home/the_3d6/devtools/gcc-arm-none-eabi-8-2018-q4-major/bin/../lib/gcc/arm-none-eabi/8.2.1/../../../../arm-none-eabi/lib/thumb/v7e-m+fp/hard/libc_nano.a(lib_a-mlock.o)
 .text          0x0000000000000000        0x0 /home/the_3d6/devtools/gcc-arm-none-eabi-8-2018-q4-major/bin/../lib/gcc/arm-none-eabi/8.2.1/../../../../arm-none-eabi/lib/thumb/v7e-m+fp/hard/libc_nano.a(lib_a-nano-msizer.o)
 .data          0x0000000000000000        0x0 /home/the_3d6/devtools/gcc-arm-none-eabi-8-2018-q4-major/bin/../lib/gcc/arm-none-eabi/8.2.1/../../../../arm-none-eabi/lib/thumb/v7e-m+fp/hard/libc_nano.a(lib_a-nano-msizer.o)
 .bss           0x0000000000000000        0x0 /home/the_3d6/devtools/gcc-arm-none-eabi-8-2018-q4-major/bin/../lib/gcc/arm-none-eabi/8.2.1/../../../../arm-none-eabi/lib/thumb/v7e-m+fp/hard/libc_nano.a(lib_a-nano-msizer.o)
 .text          0x0000000000000000        0x0 /home/the_3d6/devtools/gcc-arm-none-eabi-8-2018-q4-major/bin/../lib/gcc/arm-none-eabi/8.2.1/../../../../arm-none-eabi/lib/thumb/v7e-m+fp/hard/libc_nano.a(lib_a-reent.o)
 .data          0x0000000000000000        0x0 /home/the_3d6/devtools/gcc-arm-none-eabi-8-2018-q4-major/bin/../lib/gcc/arm-none-eabi/8.2.1/../../../../arm-none-eabi/lib/thumb/v7e-m+fp/hard/libc_nano.a(lib_a-reent.o)
 .bss           0x0000000000000000        0x0 /home/the_3d6/devtools/gcc-arm-none-eabi-8-2018-q4-major/bin/../lib/gcc/arm-none-eabi/8.2.1/../../../../arm-none-eabi/lib/thumb/v7e-m+fp/hard/libc_nano.a(lib_a-reent.o)
 .text.cleanup_glue
                0x0000000000000000       0x1a /home/the_3d6/devtools/gcc-arm-none-eabi-8-2018-q4-major/bin/../lib/gcc/arm-none-eabi/8.2.1/../../../../arm-none-eabi/lib/thumb/v7e-m+fp/hard/libc_nano.a(lib_a-reent.o)
 .text._reclaim_reent
                0x0000000000000000       0xb8 /home/the_3d6/devtools/gcc-arm-none-eabi-8-2018-q4-major/bin/../lib/gcc/arm-none-eabi/8.2.1/../../../../arm-none-eabi/lib/thumb/v7e-m+fp/hard/libc_nano.a(lib_a-reent.o)
 .text          0x0000000000000000        0x0 /home/the_3d6/devtools/gcc-arm-none-eabi-8-2018-q4-major/bin/../lib/gcc/arm-none-eabi/8.2.1/../../../../arm-none-eabi/lib/thumb/v7e-m+fp/hard/libc_nano.a(lib_a-lock.o)
 .data          0x0000000000000000        0x0 /home/the_3d6/devtools/gcc-arm-none-eabi-8-2018-q4-major/bin/../lib/gcc/arm-none-eabi/8.2.1/../../../../arm-none-eabi/lib/thumb/v7e-m+fp/hard/libc_nano.a(lib_a-lock.o)
 .bss           0x0000000000000000        0x0 /home/the_3d6/devtools/gcc-arm-none-eabi-8-2018-q4-major/bin/../lib/gcc/arm-none-eabi/8.2.1/../../../../arm-none-eabi/lib/thumb/v7e-m+fp/hard/libc_nano.a(lib_a-lock.o)
 .text.__retarget_lock_init
                0x0000000000000000        0x2 /home/the_3d6/devtools/gcc-arm-none-eabi-8-2018-q4-major/bin/../lib/gcc/arm-none-eabi/8.2.1/../../../../arm-none-eabi/lib/thumb/v7e-m+fp/hard/libc_nano.a(lib_a-lock.o)
 .text.__retarget_lock_init_recursive
                0x0000000000000000        0x2 /home/the_3d6/devtools/gcc-arm-none-eabi-8-2018-q4-major/bin/../lib/gcc/arm-none-eabi/8.2.1/../../../../arm-none-eabi/lib/thumb/v7e-m+fp/hard/libc_nano.a(lib_a-lock.o)
 .text.__retarget_lock_close
                0x0000000000000000        0x2 /home/the_3d6/devtools/gcc-arm-none-eabi-8-2018-q4-major/bin/../lib/gcc/arm-none-eabi/8.2.1/../../../../arm-none-eabi/lib/thumb/v7e-m+fp/hard/libc_nano.a(lib_a-lock.o)
 .text.__retarget_lock_close_recursive
                0x0000000000000000        0x2 /home/the_3d6/devtools/gcc-arm-none-eabi-8-2018-q4-major/bin/../lib/gcc/arm-none-eabi/8.2.1/../../../../arm-none-eabi/lib/thumb/v7e-m+fp/hard/libc_nano.a(lib_a-lock.o)
 .text.__retarget_lock_acquire
                0x0000000000000000        0x2 /home/the_3d6/devtools/gcc-arm-none-eabi-8-2018-q4-major/bin/../lib/gcc/arm-none-eabi/8.2.1/../../../../arm-none-eabi/lib/thumb/v7e-m+fp/hard/libc_nano.a(lib_a-lock.o)
 .text.__retarget_lock_try_acquire
                0x0000000000000000        0x4 /home/the_3d6/devtools/gcc-arm-none-eabi-8-2018-q4-major/bin/../lib/gcc/arm-none-eabi/8.2.1/../../../../arm-none-eabi/lib/thumb/v7e-m+fp/hard/libc_nano.a(lib_a-lock.o)
 .text.__retarget_lock_try_acquire_recursive
                0x0000000000000000        0x4 /home/the_3d6/devtools/gcc-arm-none-eabi-8-2018-q4-major/bin/../lib/gcc/arm-none-eabi/8.2.1/../../../../arm-none-eabi/lib/thumb/v7e-m+fp/hard/libc_nano.a(lib_a-lock.o)
 .text.__retarget_lock_release
                0x0000000000000000        0x2 /home/the_3d6/devtools/gcc-arm-none-eabi-8-2018-q4-major/bin/../lib/gcc/arm-none-eabi/8.2.1/../../../../arm-none-eabi/lib/thumb/v7e-m+fp/hard/libc_nano.a(lib_a-lock.o)
 .text          0x0000000000000000        0x0 /home/the_3d6/devtools/gcc-arm-none-eabi-8-2018-q4-major/bin/../lib/gcc/arm-none-eabi/8.2.1/../../../../arm-none-eabi/lib/thumb/v7e-m+fp/hard/libnosys.a(sbrk.o)
 .data          0x0000000000000000        0x0 /home/the_3d6/devtools/gcc-arm-none-eabi-8-2018-q4-major/bin/../lib/gcc/arm-none-eabi/8.2.1/../../../../arm-none-eabi/lib/thumb/v7e-m+fp/hard/libnosys.a(sbrk.o)
 .bss           0x0000000000000000        0x0 /home/the_3d6/devtools/gcc-arm-none-eabi-8-2018-q4-major/bin/../lib/gcc/arm-none-eabi/8.2.1/../../../../arm-none-eabi/lib/thumb/v7e-m+fp/hard/libnosys.a(sbrk.o)
 .text          0x0000000000000000        0x0 /home/the_3d6/devtools/gcc-arm-none-eabi-8-2018-q4-major/bin/../lib/gcc/arm-none-eabi/8.2.1/../../../../arm-none-eabi/lib/thumb/v7e-m+fp/hard/libnosys.a(_exit.o)
 .data          0x0000000000000000        0x0 /home/the_3d6/devtools/gcc-arm-none-eabi-8-2018-q4-major/bin/../lib/gcc/arm-none-eabi/8.2.1/../../../../arm-none-eabi/lib/thumb/v7e-m+fp/hard/libnosys.a(_exit.o)
 .bss           0x0000000000000000        0x0 /home/the_3d6/devtools/gcc-arm-none-eabi-8-2018-q4-major/bin/../lib/gcc/arm-none-eabi/8.2.1/../../../../arm-none-eabi/lib/thumb/v7e-m+fp/hard/libnosys.a(_exit.o)
 .text          0x0000000000000000        0x0 /home/the_3d6/devtools/gcc-arm-none-eabi-8-2018-q4-major/bin/../lib/gcc/arm-none-eabi/8.2.1/thumb/v7e-m+fp/hard/crtend.o
 .data          0x0000000000000000        0x0 /home/the_3d6/devtools/gcc-arm-none-eabi-8-2018-q4-major/bin/../lib/gcc/arm-none-eabi/8.2.1/thumb/v7e-m+fp/hard/crtend.o
 .bss           0x0000000000000000        0x0 /home/the_3d6/devtools/gcc-arm-none-eabi-8-2018-q4-major/bin/../lib/gcc/arm-none-eabi/8.2.1/thumb/v7e-m+fp/hard/crtend.o
 .text          0x0000000000000000        0x0 /home/the_3d6/devtools/gcc-arm-none-eabi-8-2018-q4-major/bin/../lib/gcc/arm-none-eabi/8.2.1/thumb/v7e-m+fp/hard/crtn.o
 .data          0x0000000000000000        0x0 /home/the_3d6/devtools/gcc-arm-none-eabi-8-2018-q4-major/bin/../lib/gcc/arm-none-eabi/8.2.1/thumb/v7e-m+fp/hard/crtn.o
 .bss           0x0000000000000000        0x0 /home/the_3d6/devtools/gcc-arm-none-eabi-8-2018-q4-major/bin/../lib/gcc/arm-none-eabi/8.2.1/thumb/v7e-m+fp/hard/crtn.o

Memory Configuration

Name             Origin             Length             Attributes
FLASH            0x0000000000000000 0x0000000000003000 xr
RAM              0x0000000020000000 0x0000000000010000 xrw
*default*        0x0000000000000000 0xffffffffffffffff

Linker script and memory map


.text           0x0000000000000000     0x20c8
 *(.isr_vector)
 .isr_vector    0x0000000000000000      0x200 build//uboot/gcc_startup_nrf52832_bootloader.S.o
                0x0000000000000000                __isr_vector
 *(.text*)
 .text          0x0000000000000200       0x40 /home/the_3d6/devtools/gcc-arm-none-eabi-8-2018-q4-major/bin/../lib/gcc/arm-none-eabi/8.2.1/thumb/v7e-m+fp/hard/crtbegin.o
 .text          0x0000000000000240       0x74 /home/the_3d6/devtools/gcc-arm-none-eabi-8-2018-q4-major/bin/../lib/gcc/arm-none-eabi/8.2.1/../../../../arm-none-eabi/lib/thumb/v7e-m+fp/hard/crt0.o
                0x0000000000000240                _mainCRTStartup
                0x0000000000000240                _start
 .text.start_code_test
                0x00000000000002b4       0x2a build//uboot/main.c.o
 .text.start_code2
                0x00000000000002de       0x20 build//uboot/main.c.o
 *fill*         0x00000000000002fe        0x2 
 .text.binary_exec
                0x0000000000000300       0x88 build//uboot/main.c.o
                0x0000000000000300                binary_exec
 .text.erase_page
                0x0000000000000388       0x60 build//uboot/main.c.o
                0x0000000000000388                erase_page
 .text.write_word
                0x00000000000003e8       0x60 build//uboot/main.c.o
                0x00000000000003e8                write_word
 .text.parse_in_packet
                0x0000000000000448      0x628 build//uboot/main.c.o
                0x0000000000000448                parse_in_packet
 .text.check_uart_packet
                0x0000000000000a70      0x1a4 build//uboot/main.c.o
                0x0000000000000a70                check_uart_packet
 .text.SystemInit
                0x0000000000000c14        0xe build//uboot/main.c.o
                0x0000000000000c14                SystemInit
 *fill*         0x0000000000000c22        0x2 
 .text.main     0x0000000000000c24      0x144 build//uboot/main.c.o
                0x0000000000000c24                main
 .text.NVIC_EnableIRQ
                0x0000000000000d68       0x34 build//uboot/timer_core.c.o
 .text.start_time
                0x0000000000000d9c       0x54 build//uboot/timer_core.c.o
                0x0000000000000d9c                start_time
 .text.micros   0x0000000000000df0       0x18 build//uboot/timer_core.c.o
                0x0000000000000df0                micros
 .text.millis   0x0000000000000e08       0x18 build//uboot/timer_core.c.o
                0x0000000000000e08                millis
 .text.TIMER2_IRQHandler
                0x0000000000000e20       0x80 build//uboot/timer_core.c.o
                0x0000000000000e20                TIMER2_IRQHandler
 .text.delay_ms
                0x0000000000000ea0       0x40 build//uboot/timer_core.c.o
                0x0000000000000ea0                delay_ms
 .text.NVIC_EnableIRQ
                0x0000000000000ee0       0x34 build//uboot/fast_radio.c.o
 .text.fr_disable
                0x0000000000000f14       0x48 build//uboot/fast_radio.c.o
                0x0000000000000f14                fr_disable
 .text.fr_init  0x0000000000000f5c       0xc8 build//uboot/fast_radio.c.o
                0x0000000000000f5c                fr_init
 .text.fr_mode_rx_only
                0x0000000000001024       0x5c build//uboot/fast_radio.c.o
                0x0000000000001024                fr_mode_rx_only
 .text.fr_mode_tx_then_rx
                0x0000000000001080       0x7c build//uboot/fast_radio.c.o
                0x0000000000001080                fr_mode_tx_then_rx
 .text.fr_listen
                0x00000000000010fc       0x2c build//uboot/fast_radio.c.o
                0x00000000000010fc                fr_listen
 .text.fr_send_and_listen
                0x0000000000001128       0x50 build//uboot/fast_radio.c.o
                0x0000000000001128                fr_send_and_listen
 .text.fr_has_new_packet
                0x0000000000001178       0x28 build//uboot/fast_radio.c.o
                0x0000000000001178                fr_has_new_packet
 .text.fr_get_packet
                0x00000000000011a0       0x5c build//uboot/fast_radio.c.o
                0x00000000000011a0                fr_get_packet
 .text.RADIO_IRQHandler
                0x00000000000011fc      0x148 build//uboot/fast_radio.c.o
                0x00000000000011fc                RADIO_IRQHandler
 .text.NVIC_EnableIRQ
                0x0000000000001344       0x34 build//uboot/uart_interface.c.o
 .text.uart_init
                0x0000000000001378       0x78 build//uboot/uart_interface.c.o
                0x0000000000001378                uart_init
 .text.uart_send
                0x00000000000013f0       0xb8 build//uboot/uart_interface.c.o
                0x00000000000013f0                uart_send
 .text.UARTE0_UART0_IRQHandler
                0x00000000000014a8       0xa0 build//uboot/uart_interface.c.o
                0x00000000000014a8                UARTE0_UART0_IRQHandler
 .text.get_rx_position
                0x0000000000001548       0x18 build//uboot/uart_interface.c.o
                0x0000000000001548                get_rx_position
 .text.get_rx_buf
                0x0000000000001560       0x14 build//uboot/uart_interface.c.o
                0x0000000000001560                get_rx_buf
 .text.get_rx_buf_length
                0x0000000000001574       0x18 build//uboot/uart_interface.c.o
                0x0000000000001574                get_rx_buf_length
 .text.uprintf  0x000000000000158c       0x38 build//uboot/uart_interface.c.o
                0x000000000000158c                uprintf
 .text          0x00000000000015c4       0x3c build//uboot/gcc_startup_nrf52832_bootloader.S.o
                0x00000000000015c4                Reset_Handler
                0x00000000000015ec                NMI_Handler
                0x00000000000015ee                HardFault_Handler
                0x00000000000015f0                MemoryManagement_Handler
                0x00000000000015f2                BusFault_Handler
                0x00000000000015f4                UsageFault_Handler
                0x00000000000015f6                SVC_Handler
                0x00000000000015f8                DebugMon_Handler
                0x00000000000015fa                PendSV_Handler
                0x00000000000015fc                SysTick_Handler
                0x00000000000015fe                RTC0_IRQHandler
                0x00000000000015fe                SWI0_EGU0_IRQHandler
                0x00000000000015fe                SWI2_EGU2_IRQHandler
                0x00000000000015fe                GPIOTE_IRQHandler
                0x00000000000015fe                PWM1_IRQHandler
                0x00000000000015fe                POWER_CLOCK_IRQHandler
                0x00000000000015fe                PDM_IRQHandler
                0x00000000000015fe                TEMP_IRQHandler
                0x00000000000015fe                QDEC_IRQHandler
                0x00000000000015fe                TIMER3_IRQHandler
                0x00000000000015fe                FPU_IRQHandler
                0x00000000000015fe                SPIM0_SPIS0_TWIM0_TWIS0_SPI0_TWI0_IRQHandler
                0x00000000000015fe                TIMER4_IRQHandler
                0x00000000000015fe                I2S_IRQHandler
                0x00000000000015fe                SWI4_EGU4_IRQHandler
                0x00000000000015fe                TIMER0_IRQHandler
                0x00000000000015fe                TIMER1_IRQHandler
                0x00000000000015fe                PWM2_IRQHandler
                0x00000000000015fe                ECB_IRQHandler
                0x00000000000015fe                SPIM1_SPIS1_TWIM1_TWIS1_SPI1_TWI1_IRQHandler
                0x00000000000015fe                Default_Handler
                0x00000000000015fe                SAADC_IRQHandler
                0x00000000000015fe                CCM_AAR_IRQHandler
                0x00000000000015fe                WDT_IRQHandler
                0x00000000000015fe                SWI5_EGU5_IRQHandler
                0x00000000000015fe                RNG_IRQHandler
                0x00000000000015fe                RTC2_IRQHandler
                0x00000000000015fe                PWM0_IRQHandler
                0x00000000000015fe                SWI3_EGU3_IRQHandler
                0x00000000000015fe                RTC1_IRQHandler
                0x00000000000015fe                SWI1_EGU1_IRQHandler
                0x00000000000015fe                SPIM2_SPIS2_SPI2_IRQHandler
                0x00000000000015fe                NFCT_IRQHandler
                0x00000000000015fe                MWU_IRQHandler
                0x00000000000015fe                COMP_LPCOMP_IRQHandler
 .text.exit     0x0000000000001600       0x28 /home/the_3d6/devtools/gcc-arm-none-eabi-8-2018-q4-major/bin/../lib/gcc/arm-none-eabi/8.2.1/../../../../arm-none-eabi/lib/thumb/v7e-m+fp/hard/libc_nano.a(lib_a-exit.o)
                0x0000000000001600                exit
 .text.__libc_init_array
                0x0000000000001628       0x48 /home/the_3d6/devtools/gcc-arm-none-eabi-8-2018-q4-major/bin/../lib/gcc/arm-none-eabi/8.2.1/../../../../arm-none-eabi/lib/thumb/v7e-m+fp/hard/libc_nano.a(lib_a-init.o)
                0x0000000000001628                __libc_init_array
 .text.memset   0x0000000000001670       0x10 /home/the_3d6/devtools/gcc-arm-none-eabi-8-2018-q4-major/bin/../lib/gcc/arm-none-eabi/8.2.1/../../../../arm-none-eabi/lib/thumb/v7e-m+fp/hard/libc_nano.a(lib_a-memset.o)
                0x0000000000001670                memset
 .text._vsnprintf_r
                0x0000000000001680       0x58 /home/the_3d6/devtools/gcc-arm-none-eabi-8-2018-q4-major/bin/../lib/gcc/arm-none-eabi/8.2.1/../../../../arm-none-eabi/lib/thumb/v7e-m+fp/hard/libc_nano.a(lib_a-vsnprintf.o)
                0x0000000000001680                _vsnprintf_r
                0x0000000000001680                _vsniprintf_r
 .text.vsnprintf
                0x00000000000016d8       0x1c /home/the_3d6/devtools/gcc-arm-none-eabi-8-2018-q4-major/bin/../lib/gcc/arm-none-eabi/8.2.1/../../../../arm-none-eabi/lib/thumb/v7e-m+fp/hard/libc_nano.a(lib_a-vsnprintf.o)
                0x00000000000016d8                vsnprintf
                0x00000000000016d8                vsniprintf
 .text.__ssputs_r
                0x00000000000016f4       0xb6 /home/the_3d6/devtools/gcc-arm-none-eabi-8-2018-q4-major/bin/../lib/gcc/arm-none-eabi/8.2.1/../../../../arm-none-eabi/lib/thumb/v7e-m+fp/hard/libc_nano.a(lib_a-nano-svfprintf.o)
                0x00000000000016f4                __ssputs_r
 *fill*         0x00000000000017aa        0x2 
 .text._svfprintf_r
                0x00000000000017ac      0x1f0 /home/the_3d6/devtools/gcc-arm-none-eabi-8-2018-q4-major/bin/../lib/gcc/arm-none-eabi/8.2.1/../../../../arm-none-eabi/lib/thumb/v7e-m+fp/hard/libc_nano.a(lib_a-nano-svfprintf.o)
                0x00000000000017ac                _svfprintf_r
                0x00000000000017ac                _svfiprintf_r
 .text._printf_common
                0x000000000000199c       0xea /home/the_3d6/devtools/gcc-arm-none-eabi-8-2018-q4-major/bin/../lib/gcc/arm-none-eabi/8.2.1/../../../../arm-none-eabi/lib/thumb/v7e-m+fp/hard/libc_nano.a(lib_a-nano-vfprintf_i.o)
                0x000000000000199c                _printf_common
 *fill*         0x0000000000001a86        0x2 
 .text._printf_i
                0x0000000000001a88      0x228 /home/the_3d6/devtools/gcc-arm-none-eabi-8-2018-q4-major/bin/../lib/gcc/arm-none-eabi/8.2.1/../../../../arm-none-eabi/lib/thumb/v7e-m+fp/hard/libc_nano.a(lib_a-nano-vfprintf_i.o)
                0x0000000000001a88                _printf_i
 .text          0x0000000000001cb0       0xa0 /home/the_3d6/devtools/gcc-arm-none-eabi-8-2018-q4-major/bin/../lib/gcc/arm-none-eabi/8.2.1/../../../../arm-none-eabi/lib/thumb/v7e-m+fp/hard/libc_nano.a(lib_a-memchr.o)
                0x0000000000001cb0                memchr
 .text.memcpy   0x0000000000001d50       0x1c /home/the_3d6/devtools/gcc-arm-none-eabi-8-2018-q4-major/bin/../lib/gcc/arm-none-eabi/8.2.1/../../../../arm-none-eabi/lib/thumb/v7e-m+fp/hard/libc_nano.a(lib_a-memcpy-stub.o)
                0x0000000000001d50                memcpy
 .text.memmove  0x0000000000001d6c       0x34 /home/the_3d6/devtools/gcc-arm-none-eabi-8-2018-q4-major/bin/../lib/gcc/arm-none-eabi/8.2.1/../../../../arm-none-eabi/lib/thumb/v7e-m+fp/hard/libc_nano.a(lib_a-memmove.o)
                0x0000000000001d6c                memmove
 .text._free_r  0x0000000000001da0       0x9c /home/the_3d6/devtools/gcc-arm-none-eabi-8-2018-q4-major/bin/../lib/gcc/arm-none-eabi/8.2.1/../../../../arm-none-eabi/lib/thumb/v7e-m+fp/hard/libc_nano.a(lib_a-nano-freer.o)
                0x0000000000001da0                _free_r
 .text._malloc_r
                0x0000000000001e3c       0xb4 /home/the_3d6/devtools/gcc-arm-none-eabi-8-2018-q4-major/bin/../lib/gcc/arm-none-eabi/8.2.1/../../../../arm-none-eabi/lib/thumb/v7e-m+fp/hard/libc_nano.a(lib_a-nano-mallocr.o)
                0x0000000000001e3c                _malloc_r
 .text._realloc_r
                0x0000000000001ef0       0x4c /home/the_3d6/devtools/gcc-arm-none-eabi-8-2018-q4-major/bin/../lib/gcc/arm-none-eabi/8.2.1/../../../../arm-none-eabi/lib/thumb/v7e-m+fp/hard/libc_nano.a(lib_a-nano-reallocr.o)
                0x0000000000001ef0                _realloc_r
 .text._sbrk_r  0x0000000000001f3c       0x20 /home/the_3d6/devtools/gcc-arm-none-eabi-8-2018-q4-major/bin/../lib/gcc/arm-none-eabi/8.2.1/../../../../arm-none-eabi/lib/thumb/v7e-m+fp/hard/libc_nano.a(lib_a-sbrkr.o)
                0x0000000000001f3c                _sbrk_r
 .text.__malloc_lock
                0x0000000000001f5c        0xc /home/the_3d6/devtools/gcc-arm-none-eabi-8-2018-q4-major/bin/../lib/gcc/arm-none-eabi/8.2.1/../../../../arm-none-eabi/lib/thumb/v7e-m+fp/hard/libc_nano.a(lib_a-mlock.o)
                0x0000000000001f5c                __malloc_lock
 .text.__malloc_unlock
                0x0000000000001f68        0xc /home/the_3d6/devtools/gcc-arm-none-eabi-8-2018-q4-major/bin/../lib/gcc/arm-none-eabi/8.2.1/../../../../arm-none-eabi/lib/thumb/v7e-m+fp/hard/libc_nano.a(lib_a-mlock.o)
                0x0000000000001f68                __malloc_unlock
 .text._malloc_usable_size_r
                0x0000000000001f74       0x10 /home/the_3d6/devtools/gcc-arm-none-eabi-8-2018-q4-major/bin/../lib/gcc/arm-none-eabi/8.2.1/../../../../arm-none-eabi/lib/thumb/v7e-m+fp/hard/libc_nano.a(lib_a-nano-msizer.o)
                0x0000000000001f74                _malloc_usable_size_r
 .text.__retarget_lock_acquire_recursive
                0x0000000000001f84        0x2 /home/the_3d6/devtools/gcc-arm-none-eabi-8-2018-q4-major/bin/../lib/gcc/arm-none-eabi/8.2.1/../../../../arm-none-eabi/lib/thumb/v7e-m+fp/hard/libc_nano.a(lib_a-lock.o)
                0x0000000000001f84                __retarget_lock_acquire_recursive
 .text.__retarget_lock_release_recursive
                0x0000000000001f86        0x2 /home/the_3d6/devtools/gcc-arm-none-eabi-8-2018-q4-major/bin/../lib/gcc/arm-none-eabi/8.2.1/../../../../arm-none-eabi/lib/thumb/v7e-m+fp/hard/libc_nano.a(lib_a-lock.o)
                0x0000000000001f86                __retarget_lock_release_recursive
 .text._sbrk    0x0000000000001f88       0x1c /home/the_3d6/devtools/gcc-arm-none-eabi-8-2018-q4-major/bin/../lib/gcc/arm-none-eabi/8.2.1/../../../../arm-none-eabi/lib/thumb/v7e-m+fp/hard/libnosys.a(sbrk.o)
                0x0000000000001f88                _sbrk
 .text._exit    0x0000000000001fa4        0x4 /home/the_3d6/devtools/gcc-arm-none-eabi-8-2018-q4-major/bin/../lib/gcc/arm-none-eabi/8.2.1/../../../../arm-none-eabi/lib/thumb/v7e-m+fp/hard/libnosys.a(_exit.o)
                0x0000000000001fa4                _exit
 *(.init)
 .init          0x0000000000001fa8        0x4 /home/the_3d6/devtools/gcc-arm-none-eabi-8-2018-q4-major/bin/../lib/gcc/arm-none-eabi/8.2.1/thumb/v7e-m+fp/hard/crti.o
                0x0000000000001fa8                _init
 .init          0x0000000000001fac        0x8 /home/the_3d6/devtools/gcc-arm-none-eabi-8-2018-q4-major/bin/../lib/gcc/arm-none-eabi/8.2.1/thumb/v7e-m+fp/hard/crtn.o
 *(.fini)
 .fini          0x0000000000001fb4        0x4 /home/the_3d6/devtools/gcc-arm-none-eabi-8-2018-q4-major/bin/../lib/gcc/arm-none-eabi/8.2.1/thumb/v7e-m+fp/hard/crti.o
                0x0000000000001fb4                _fini
 .fini          0x0000000000001fb8        0x8 /home/the_3d6/devtools/gcc-arm-none-eabi-8-2018-q4-major/bin/../lib/gcc/arm-none-eabi/8.2.1/thumb/v7e-m+fp/hard/crtn.o
 *crtbegin.o(.ctors)
 *crtbegin?.o(.ctors)
 *(EXCLUDE_FILE(*crtend.o *crtend?.o) .ctors)
 *(SORT_BY_NAME(.ctors.*))
 *(.ctors)
 *crtbegin.o(.dtors)
 *crtbegin?.o(.dtors)
 *(EXCLUDE_FILE(*crtend.o *crtend?.o) .dtors)
 *(SORT_BY_NAME(.dtors.*))
 *(.dtors)
 *(.rodata*)
 .rodata        0x0000000000001fc0       0xcc build//uboot/main.c.o
 .rodata._global_impure_ptr
                0x000000000000208c        0x4 /home/the_3d6/devtools/gcc-arm-none-eabi-8-2018-q4-major/bin/../lib/gcc/arm-none-eabi/8.2.1/../../../../arm-none-eabi/lib/thumb/v7e-m+fp/hard/libc_nano.a(lib_a-impure.o)
                0x000000000000208c                _global_impure_ptr
 .rodata._svfprintf_r.str1.1
                0x0000000000002090       0x11 /home/the_3d6/devtools/gcc-arm-none-eabi-8-2018-q4-major/bin/../lib/gcc/arm-none-eabi/8.2.1/../../../../arm-none-eabi/lib/thumb/v7e-m+fp/hard/libc_nano.a(lib_a-nano-svfprintf.o)
 .rodata._printf_i.str1.1
                0x00000000000020a1       0x22 /home/the_3d6/devtools/gcc-arm-none-eabi-8-2018-q4-major/bin/../lib/gcc/arm-none-eabi/8.2.1/../../../../arm-none-eabi/lib/thumb/v7e-m+fp/hard/libc_nano.a(lib_a-nano-vfprintf_i.o)
 *(.eh_frame*)
 *fill*         0x00000000000020c3        0x1 
 .eh_frame      0x00000000000020c4        0x0 /home/the_3d6/devtools/gcc-arm-none-eabi-8-2018-q4-major/bin/../lib/gcc/arm-none-eabi/8.2.1/thumb/v7e-m+fp/hard/crtbegin.o
 .eh_frame      0x00000000000020c4        0x4 /home/the_3d6/devtools/gcc-arm-none-eabi-8-2018-q4-major/bin/../lib/gcc/arm-none-eabi/8.2.1/thumb/v7e-m+fp/hard/crtend.o

.glue_7         0x00000000000020c8        0x0
 .glue_7        0x00000000000020c8        0x0 linker stubs

.glue_7t        0x00000000000020c8        0x0
 .glue_7t       0x00000000000020c8        0x0 linker stubs

.vfp11_veneer   0x00000000000020c8        0x0
 .vfp11_veneer  0x00000000000020c8        0x0 linker stubs

.v4_bx          0x00000000000020c8        0x0
 .v4_bx         0x00000000000020c8        0x0 linker stubs

.iplt           0x00000000000020c8        0x0
 .iplt          0x00000000000020c8        0x0 /home/the_3d6/devtools/gcc-arm-none-eabi-8-2018-q4-major/bin/../lib/gcc/arm-none-eabi/8.2.1/thumb/v7e-m+fp/hard/crtbegin.o

.mem_section_dummy_rom

.log_const_data
                0x00000000000020c8        0x0
                [!provide]                        PROVIDE (__start_log_const_data = .)
 *(.log_const_data)
                [!provide]                        PROVIDE (__stop_log_const_data = .)

.ARM.extab
 *(.ARM.extab* .gnu.linkonce.armextab.*)
                0x00000000000020c8                __exidx_start = .

.ARM.exidx      0x00000000000020c8        0x8
 *(.ARM.exidx* .gnu.linkonce.armexidx.*)
 .ARM.exidx     0x00000000000020c8        0x8 /home/the_3d6/devtools/gcc-arm-none-eabi-8-2018-q4-major/bin/../lib/gcc/arm-none-eabi/8.2.1/../../../../arm-none-eabi/lib/thumb/v7e-m+fp/hard/crt0.o
                0x00000000000020d0                __exidx_end = .
                0x00000000000020d0                __etext = .

.rel.dyn        0x00000000000020d0        0x0
 .rel.iplt      0x00000000000020d0        0x0 /home/the_3d6/devtools/gcc-arm-none-eabi-8-2018-q4-major/bin/../lib/gcc/arm-none-eabi/8.2.1/thumb/v7e-m+fp/hard/crtbegin.o

.data           0x0000000020000000       0x88 load address 0x00000000000020d0
                0x0000000020000000                __data_start__ = .
 *(vtable)
 *(.data*)
 .data.upload_start_code
                0x0000000020000000        0x8 build//uboot/main.c.o
                0x0000000020000000                upload_start_code
 .data.pack_prefix
                0x0000000020000008        0x2 build//uboot/main.c.o
                0x0000000020000008                pack_prefix
 *fill*         0x000000002000000a        0x2 
 .data.pack_max_length
                0x000000002000000c        0x4 build//uboot/fast_radio.c.o
                0x000000002000000c                pack_max_length
 .data.pack_payload
                0x0000000020000010        0x4 build//uboot/fast_radio.c.o
                0x0000000020000010                pack_payload
 .data.uart_buf_length
                0x0000000020000014        0x4 build//uboot/uart_interface.c.o
                0x0000000020000014                uart_buf_length
 .data.send_complete
                0x0000000020000018        0x1 build//uboot/uart_interface.c.o
                0x0000000020000018                send_complete
 *fill*         0x0000000020000019        0x3 
 .data._impure_ptr
                0x000000002000001c        0x4 /home/the_3d6/devtools/gcc-arm-none-eabi-8-2018-q4-major/bin/../lib/gcc/arm-none-eabi/8.2.1/../../../../arm-none-eabi/lib/thumb/v7e-m+fp/hard/libc_nano.a(lib_a-impure.o)
                0x000000002000001c                _impure_ptr
 .data.impure_data
                0x0000000020000020       0x60 /home/the_3d6/devtools/gcc-arm-none-eabi-8-2018-q4-major/bin/../lib/gcc/arm-none-eabi/8.2.1/../../../../arm-none-eabi/lib/thumb/v7e-m+fp/hard/libc_nano.a(lib_a-impure.o)
                0x0000000020000080                . = ALIGN (0x4)
                0x0000000020000080                PROVIDE (__preinit_array_start = .)
 *(.preinit_array)
                0x0000000020000080                PROVIDE (__preinit_array_end = .)
                0x0000000020000080                . = ALIGN (0x4)
                0x0000000020000080                PROVIDE (__init_array_start = .)
 *(SORT_BY_NAME(.init_array.*))
 *(.init_array)
 .init_array    0x0000000020000080        0x4 /home/the_3d6/devtools/gcc-arm-none-eabi-8-2018-q4-major/bin/../lib/gcc/arm-none-eabi/8.2.1/thumb/v7e-m+fp/hard/crtbegin.o
                0x0000000020000084                PROVIDE (__init_array_end = .)
                0x0000000020000084                . = ALIGN (0x4)
                [!provide]                        PROVIDE (__fini_array_start = .)
 *(SORT_BY_NAME(.fini_array.*))
 *(.fini_array)
 .fini_array    0x0000000020000084        0x4 /home/the_3d6/devtools/gcc-arm-none-eabi-8-2018-q4-major/bin/../lib/gcc/arm-none-eabi/8.2.1/thumb/v7e-m+fp/hard/crtbegin.o
                [!provide]                        PROVIDE (__fini_array_end = .)
 *(.jcr*)
                0x0000000020000088                . = ALIGN (0x4)
                0x0000000020000088                __data_end__ = .
LOAD /home/the_3d6/devtools/gcc-arm-none-eabi-8-2018-q4-major/bin/../lib/gcc/arm-none-eabi/8.2.1/thumb/v7e-m+fp/hard/crti.o
LOAD /home/the_3d6/devtools/gcc-arm-none-eabi-8-2018-q4-major/bin/../lib/gcc/arm-none-eabi/8.2.1/thumb/v7e-m+fp/hard/crtbegin.o
LOAD /home/the_3d6/devtools/gcc-arm-none-eabi-8-2018-q4-major/bin/../lib/gcc/arm-none-eabi/8.2.1/../../../../arm-none-eabi/lib/thumb/v7e-m+fp/hard/crt0.o
LOAD build//uboot/main.c.o
LOAD build//uboot/timer_core.c.o
LOAD build//uboot/fast_radio.c.o
LOAD build//uboot/uart_interface.c.o
LOAD build//uboot/gcc_startup_nrf52832_bootloader.S.o
LOAD /home/the_3d6/devtools/gcc-arm-none-eabi-8-2018-q4-major/bin/../lib/gcc/arm-none-eabi/8.2.1/../../../../arm-none-eabi/lib/thumb/v7e-m+fp/hard/libc_nano.a
LOAD /home/the_3d6/devtools/gcc-arm-none-eabi-8-2018-q4-major/bin/../lib/gcc/arm-none-eabi/8.2.1/../../../../arm-none-eabi/lib/thumb/v7e-m+fp/hard/libnosys.a
LOAD /home/the_3d6/devtools/gcc-arm-none-eabi-8-2018-q4-major/bin/../lib/gcc/arm-none-eabi/8.2.1/../../../../arm-none-eabi/lib/thumb/v7e-m+fp/hard/libm.a
START GROUP
LOAD /home/the_3d6/devtools/gcc-arm-none-eabi-8-2018-q4-major/bin/../lib/gcc/arm-none-eabi/8.2.1/thumb/v7e-m+fp/hard/libgcc.a
LOAD /home/the_3d6/devtools/gcc-arm-none-eabi-8-2018-q4-major/bin/../lib/gcc/arm-none-eabi/8.2.1/../../../../arm-none-eabi/lib/thumb/v7e-m+fp/hard/libg_nano.a
LOAD /home/the_3d6/devtools/gcc-arm-none-eabi-8-2018-q4-major/bin/../lib/gcc/arm-none-eabi/8.2.1/../../../../arm-none-eabi/lib/thumb/v7e-m+fp/hard/libc_nano.a
END GROUP
START GROUP
LOAD /home/the_3d6/devtools/gcc-arm-none-eabi-8-2018-q4-major/bin/../lib/gcc/arm-none-eabi/8.2.1/thumb/v7e-m+fp/hard/libgcc.a
LOAD /home/the_3d6/devtools/gcc-arm-none-eabi-8-2018-q4-major/bin/../lib/gcc/arm-none-eabi/8.2.1/../../../../arm-none-eabi/lib/thumb/v7e-m+fp/hard/libc_nano.a
END GROUP
LOAD /home/the_3d6/devtools/gcc-arm-none-eabi-8-2018-q4-major/bin/../lib/gcc/arm-none-eabi/8.2.1/thumb/v7e-m+fp/hard/crtend.o
LOAD /home/the_3d6/devtools/gcc-arm-none-eabi-8-2018-q4-major/bin/../lib/gcc/arm-none-eabi/8.2.1/thumb/v7e-m+fp/hard/crtn.o
START GROUP
LOAD /home/the_3d6/devtools/gcc-arm-none-eabi-8-2018-q4-major/bin/../lib/gcc/arm-none-eabi/8.2.1/thumb/v7e-m+fp/hard/libgcc.a
LOAD /home/the_3d6/devtools/gcc-arm-none-eabi-8-2018-q4-major/bin/../lib/gcc/arm-none-eabi/8.2.1/../../../../arm-none-eabi/lib/thumb/v7e-m+fp/hard/libc.a
LOAD /home/the_3d6/devtools/gcc-arm-none-eabi-8-2018-q4-major/bin/../lib/gcc/arm-none-eabi/8.2.1/../../../../arm-none-eabi/lib/thumb/v7e-m+fp/hard/libnosys.a
END GROUP

.igot.plt       0x0000000020000088        0x0 load address 0x0000000000002158
 .igot.plt      0x0000000020000088        0x0 /home/the_3d6/devtools/gcc-arm-none-eabi-8-2018-q4-major/bin/../lib/gcc/arm-none-eabi/8.2.1/thumb/v7e-m+fp/hard/crtbegin.o
                0x0000000020000088                . = ALIGN (0x4)

.mem_section_dummy_ram

.log_dynamic_data
                0x0000000020000088        0x0
                [!provide]                        PROVIDE (__start_log_dynamic_data = .)
 *(.log_dynamic_data)
                [!provide]                        PROVIDE (__stop_log_dynamic_data = .)

.bss            0x0000000020000088      0x6e0 load address 0x0000000000002158
                0x0000000020000088                . = ALIGN (0x4)
                0x0000000020000088                __bss_start__ = .
 *(.bss*)
 .bss           0x0000000020000088       0x1c /home/the_3d6/devtools/gcc-arm-none-eabi-8-2018-q4-major/bin/../lib/gcc/arm-none-eabi/8.2.1/thumb/v7e-m+fp/hard/crtbegin.o
 .bss.last_uart_pos
                0x00000000200000a4        0x1 build//uboot/main.c.o
                0x00000000200000a4                last_uart_pos
 *fill*         0x00000000200000a5        0x3 
 .bss.pack_length
                0x00000000200000a8        0x4 build//uboot/main.c.o
                0x00000000200000a8                pack_length
 .bss.pack_state
                0x00000000200000ac        0x4 build//uboot/main.c.o
                0x00000000200000ac                pack_state
 .bss.pack_begin
                0x00000000200000b0        0x4 build//uboot/main.c.o
                0x00000000200000b0                pack_begin
 .bss.code_uploading
                0x00000000200000b4        0x4 build//uboot/main.c.o
                0x00000000200000b4                code_uploading
 .bss.last_pack_id
                0x00000000200000b8        0x1 build//uboot/main.c.o
                0x00000000200000b8                last_pack_id
 *fill*         0x00000000200000b9        0x3 
 .bss.remaining_bytes
                0x00000000200000bc        0x4 build//uboot/main.c.o
                0x00000000200000bc                remaining_bytes
 .bss.written_words
                0x00000000200000c0        0x4 build//uboot/main.c.o
                0x00000000200000c0                written_words
 .bss.launch_address
                0x00000000200000c4        0x4 build//uboot/main.c.o
                0x00000000200000c4                launch_address
 .bss.mcs_time  0x00000000200000c8        0x4 build//uboot/timer_core.c.o
                0x00000000200000c8                mcs_time
 .bss.ms_time   0x00000000200000cc        0x4 build//uboot/timer_core.c.o
                0x00000000200000cc                ms_time
 .bss.s_time    0x00000000200000d0        0x4 build//uboot/timer_core.c.o
                0x00000000200000d0                s_time
 .bss.ms_counter
                0x00000000200000d4        0x4 build//uboot/timer_core.c.o
                0x00000000200000d4                ms_counter
 .bss.s_counter
                0x00000000200000d8        0x4 build//uboot/timer_core.c.o
                0x00000000200000d8                s_counter
 .bss.timer_on  0x00000000200000dc        0x1 build//uboot/timer_core.c.o
                0x00000000200000dc                timer_on
 *fill*         0x00000000200000dd        0x3 
 .bss.rx_packet_counter
                0x00000000200000e0        0x4 build//uboot/fast_radio.c.o
                0x00000000200000e0                rx_packet_counter
 .bss.last_processed_rx_packet
                0x00000000200000e4        0x4 build//uboot/fast_radio.c.o
                0x00000000200000e4                last_processed_rx_packet
 .bss.last_end_event_time
                0x00000000200000e8        0x4 build//uboot/fast_radio.c.o
                0x00000000200000e8                last_end_event_time
 .bss.last_rx_time
                0x00000000200000ec        0x4 build//uboot/fast_radio.c.o
                0x00000000200000ec                last_rx_time
 .bss.current_mode
                0x00000000200000f0        0x1 build//uboot/fast_radio.c.o
                0x00000000200000f0                current_mode
 *fill*         0x00000000200000f1        0x3 
 .bss.irq_cnt   0x00000000200000f4        0x4 build//uboot/fast_radio.c.o
                0x00000000200000f4                irq_cnt
 .bss.uart_buf_pos
                0x00000000200000f8        0x1 build//uboot/uart_interface.c.o
                0x00000000200000f8                uart_buf_pos
 .bss.send_start
                0x00000000200000f9        0x1 build//uboot/uart_interface.c.o
                0x00000000200000f9                send_start
 .bss.send_end  0x00000000200000fa        0x1 build//uboot/uart_interface.c.o
                0x00000000200000fa                send_end
 *fill*         0x00000000200000fb        0x1 
 .bss.__malloc_free_list
                0x00000000200000fc        0x4 /home/the_3d6/devtools/gcc-arm-none-eabi-8-2018-q4-major/bin/../lib/gcc/arm-none-eabi/8.2.1/../../../../arm-none-eabi/lib/thumb/v7e-m+fp/hard/libc_nano.a(lib_a-nano-mallocr.o)
                0x00000000200000fc                __malloc_free_list
 .bss.__malloc_sbrk_start
                0x0000000020000100        0x4 /home/the_3d6/devtools/gcc-arm-none-eabi-8-2018-q4-major/bin/../lib/gcc/arm-none-eabi/8.2.1/../../../../arm-none-eabi/lib/thumb/v7e-m+fp/hard/libc_nano.a(lib_a-nano-mallocr.o)
                0x0000000020000100                __malloc_sbrk_start
 .bss.heap_end.5501
                0x0000000020000104        0x4 /home/the_3d6/devtools/gcc-arm-none-eabi-8-2018-q4-major/bin/../lib/gcc/arm-none-eabi/8.2.1/../../../../arm-none-eabi/lib/thumb/v7e-m+fp/hard/libnosys.a(sbrk.o)
 *(COMMON)
 COMMON         0x0000000020000108      0x14c build//uboot/main.c.o
                0x0000000020000108                pack_resp
                0x0000000020000118                uart_in_packet
                0x0000000020000244                radio_resp
 COMMON         0x0000000020000254      0x200 build//uboot/fast_radio.c.o
                0x0000000020000254                tx_packet
                0x0000000020000354                rx_packet
 COMMON         0x0000000020000454      0x304 build//uboot/uart_interface.c.o
                0x0000000020000454                uart_buf
                0x0000000020000558                umsg
                0x0000000020000658                send_buf
 COMMON         0x0000000020000758        0x4 /home/the_3d6/devtools/gcc-arm-none-eabi-8-2018-q4-major/bin/../lib/gcc/arm-none-eabi/8.2.1/../../../../arm-none-eabi/lib/thumb/v7e-m+fp/hard/libc_nano.a(lib_a-reent.o)
                0x0000000020000758                errno
 COMMON         0x000000002000075c        0x9 /home/the_3d6/devtools/gcc-arm-none-eabi-8-2018-q4-major/bin/../lib/gcc/arm-none-eabi/8.2.1/../../../../arm-none-eabi/lib/thumb/v7e-m+fp/hard/libc_nano.a(lib_a-lock.o)
                0x000000002000075c                __lock___atexit_recursive_mutex
                0x000000002000075d                __lock___arc4random_mutex
                0x000000002000075e                __lock___env_recursive_mutex
                0x000000002000075f                __lock___sinit_recursive_mutex
                0x0000000020000760                __lock___malloc_recursive_mutex
                0x0000000020000761                __lock___at_quick_exit_mutex
                0x0000000020000762                __lock___dd_hash_mutex
                0x0000000020000763                __lock___tz_mutex
                0x0000000020000764                __lock___sfp_recursive_mutex
                0x0000000020000768                . = ALIGN (0x4)
 *fill*         0x0000000020000765        0x3 
                0x0000000020000768                __bss_end__ = .

.heap           0x0000000020000768      0x200
                0x0000000020000768                __HeapBase = .
                0x0000000020000768                __end__ = .
                0x0000000020000768                PROVIDE (end = .)
 *(.heap*)
 .heap          0x0000000020000768      0x200 build//uboot/gcc_startup_nrf52832_bootloader.S.o
                0x0000000020000968                __HeapLimit = .

.stack_dummy    0x0000000020000768      0x200
 *(.stack*)
 .stack         0x0000000020000768      0x200 build//uboot/gcc_startup_nrf52832_bootloader.S.o
                0x0000000020010000                __StackTop = (ORIGIN (RAM) + LENGTH (RAM))
                0x000000002000fe00                __StackLimit = (__StackTop - SIZEOF (.stack_dummy))
                0x0000000020010000                PROVIDE (__stack = __StackTop)
                0x0000000000000001                ASSERT ((__StackLimit >= __HeapLimit), region RAM overflowed with stack)
                0x0000000000000088                DataInitFlashUsed = (__bss_start__ - __data_start__)
                0x00000000000020d0                CodeFlashUsed = (__etext - ORIGIN (FLASH))
                0x0000000000002158                TotalFlashUsed = (CodeFlashUsed + DataInitFlashUsed)
                0x0000000000000001                ASSERT ((TotalFlashUsed <= LENGTH (FLASH)), region FLASH overflowed with .data and user data)
OUTPUT(build//uboot.out elf32-littlearm)

.ARM.attributes
                0x0000000000000000       0x30
 .ARM.attributes
                0x0000000000000000       0x1e /home/the_3d6/devtools/gcc-arm-none-eabi-8-2018-q4-major/bin/../lib/gcc/arm-none-eabi/8.2.1/thumb/v7e-m+fp/hard/crti.o
 .ARM.attributes
                0x000000000000001e       0x34 /home/the_3d6/devtools/gcc-arm-none-eabi-8-2018-q4-major/bin/../lib/gcc/arm-none-eabi/8.2.1/thumb/v7e-m+fp/hard/crtbegin.o
 .ARM.attributes
                0x0000000000000052       0x1c /home/the_3d6/devtools/gcc-arm-none-eabi-8-2018-q4-major/bin/../lib/gcc/arm-none-eabi/8.2.1/../../../../arm-none-eabi/lib/thumb/v7e-m+fp/hard/crt0.o
 .ARM.attributes
                0x000000000000006e       0x34 build//uboot/main.c.o
 .ARM.attributes
                0x00000000000000a2       0x34 build//uboot/timer_core.c.o
 .ARM.attributes
                0x00000000000000d6       0x34 build//uboot/fast_radio.c.o
 .ARM.attributes
                0x000000000000010a       0x34 build//uboot/uart_interface.c.o
 .ARM.attributes
                0x000000000000013e       0x20 build//uboot/gcc_startup_nrf52832_bootloader.S.o
 .ARM.attributes
                0x000000000000015e       0x34 /home/the_3d6/devtools/gcc-arm-none-eabi-8-2018-q4-major/bin/../lib/gcc/arm-none-eabi/8.2.1/../../../../arm-none-eabi/lib/thumb/v7e-m+fp/hard/libc_nano.a(lib_a-exit.o)
 .ARM.attributes
                0x0000000000000192       0x32 /home/the_3d6/devtools/gcc-arm-none-eabi-8-2018-q4-major/bin/../lib/gcc/arm-none-eabi/8.2.1/../../../../arm-none-eabi/lib/thumb/v7e-m+fp/hard/libc_nano.a(lib_a-impure.o)
 .ARM.attributes
                0x00000000000001c4       0x34 /home/the_3d6/devtools/gcc-arm-none-eabi-8-2018-q4-major/bin/../lib/gcc/arm-none-eabi/8.2.1/../../../../arm-none-eabi/lib/thumb/v7e-m+fp/hard/libc_nano.a(lib_a-init.o)
 .ARM.attributes
                0x00000000000001f8       0x34 /home/the_3d6/devtools/gcc-arm-none-eabi-8-2018-q4-major/bin/../lib/gcc/arm-none-eabi/8.2.1/../../../../arm-none-eabi/lib/thumb/v7e-m+fp/hard/libc_nano.a(lib_a-memset.o)
 .ARM.attributes
                0x000000000000022c       0x34 /home/the_3d6/devtools/gcc-arm-none-eabi-8-2018-q4-major/bin/../lib/gcc/arm-none-eabi/8.2.1/../../../../arm-none-eabi/lib/thumb/v7e-m+fp/hard/libc_nano.a(lib_a-vsnprintf.o)
 .ARM.attributes
                0x0000000000000260       0x34 /home/the_3d6/devtools/gcc-arm-none-eabi-8-2018-q4-major/bin/../lib/gcc/arm-none-eabi/8.2.1/../../../../arm-none-eabi/lib/thumb/v7e-m+fp/hard/libc_nano.a(lib_a-nano-svfprintf.o)
 .ARM.attributes
                0x0000000000000294       0x34 /home/the_3d6/devtools/gcc-arm-none-eabi-8-2018-q4-major/bin/../lib/gcc/arm-none-eabi/8.2.1/../../../../arm-none-eabi/lib/thumb/v7e-m+fp/hard/libc_nano.a(lib_a-nano-vfprintf_i.o)
 .ARM.attributes
                0x00000000000002c8       0x1c /home/the_3d6/devtools/gcc-arm-none-eabi-8-2018-q4-major/bin/../lib/gcc/arm-none-eabi/8.2.1/../../../../arm-none-eabi/lib/thumb/v7e-m+fp/hard/libc_nano.a(lib_a-memchr.o)
 .ARM.attributes
                0x00000000000002e4       0x34 /home/the_3d6/devtools/gcc-arm-none-eabi-8-2018-q4-major/bin/../lib/gcc/arm-none-eabi/8.2.1/../../../../arm-none-eabi/lib/thumb/v7e-m+fp/hard/libc_nano.a(lib_a-memcpy-stub.o)
 .ARM.attributes
                0x0000000000000318       0x34 /home/the_3d6/devtools/gcc-arm-none-eabi-8-2018-q4-major/bin/../lib/gcc/arm-none-eabi/8.2.1/../../../../arm-none-eabi/lib/thumb/v7e-m+fp/hard/libc_nano.a(lib_a-memmove.o)
 .ARM.attributes
                0x000000000000034c       0x34 /home/the_3d6/devtools/gcc-arm-none-eabi-8-2018-q4-major/bin/../lib/gcc/arm-none-eabi/8.2.1/../../../../arm-none-eabi/lib/thumb/v7e-m+fp/hard/libc_nano.a(lib_a-nano-freer.o)
 .ARM.attributes
                0x0000000000000380       0x34 /home/the_3d6/devtools/gcc-arm-none-eabi-8-2018-q4-major/bin/../lib/gcc/arm-none-eabi/8.2.1/../../../../arm-none-eabi/lib/thumb/v7e-m+fp/hard/libc_nano.a(lib_a-nano-mallocr.o)
 .ARM.attributes
                0x00000000000003b4       0x34 /home/the_3d6/devtools/gcc-arm-none-eabi-8-2018-q4-major/bin/../lib/gcc/arm-none-eabi/8.2.1/../../../../arm-none-eabi/lib/thumb/v7e-m+fp/hard/libc_nano.a(lib_a-nano-reallocr.o)
 .ARM.attributes
                0x00000000000003e8       0x34 /home/the_3d6/devtools/gcc-arm-none-eabi-8-2018-q4-major/bin/../lib/gcc/arm-none-eabi/8.2.1/../../../../arm-none-eabi/lib/thumb/v7e-m+fp/hard/libc_nano.a(lib_a-sbrkr.o)
 .ARM.attributes
                0x000000000000041c       0x34 /home/the_3d6/devtools/gcc-arm-none-eabi-8-2018-q4-major/bin/../lib/gcc/arm-none-eabi/8.2.1/../../../../arm-none-eabi/lib/thumb/v7e-m+fp/hard/libc_nano.a(lib_a-mlock.o)
 .ARM.attributes
                0x0000000000000450       0x34 /home/the_3d6/devtools/gcc-arm-none-eabi-8-2018-q4-major/bin/../lib/gcc/arm-none-eabi/8.2.1/../../../../arm-none-eabi/lib/thumb/v7e-m+fp/hard/libc_nano.a(lib_a-nano-msizer.o)
 .ARM.attributes
                0x0000000000000484       0x34 /home/the_3d6/devtools/gcc-arm-none-eabi-8-2018-q4-major/bin/../lib/gcc/arm-none-eabi/8.2.1/../../../../arm-none-eabi/lib/thumb/v7e-m+fp/hard/libc_nano.a(lib_a-reent.o)
 .ARM.attributes
                0x00000000000004b8       0x34 /home/the_3d6/devtools/gcc-arm-none-eabi-8-2018-q4-major/bin/../lib/gcc/arm-none-eabi/8.2.1/../../../../arm-none-eabi/lib/thumb/v7e-m+fp/hard/libc_nano.a(lib_a-lock.o)
 .ARM.attributes
                0x00000000000004ec       0x34 /home/the_3d6/devtools/gcc-arm-none-eabi-8-2018-q4-major/bin/../lib/gcc/arm-none-eabi/8.2.1/../../../../arm-none-eabi/lib/thumb/v7e-m+fp/hard/libnosys.a(sbrk.o)
 .ARM.attributes
                0x0000000000000520       0x34 /home/the_3d6/devtools/gcc-arm-none-eabi-8-2018-q4-major/bin/../lib/gcc/arm-none-eabi/8.2.1/../../../../arm-none-eabi/lib/thumb/v7e-m+fp/hard/libnosys.a(_exit.o)
 .ARM.attributes
                0x0000000000000554       0x32 /home/the_3d6/devtools/gcc-arm-none-eabi-8-2018-q4-major/bin/../lib/gcc/arm-none-eabi/8.2.1/thumb/v7e-m+fp/hard/crtend.o
 .ARM.attributes
                0x0000000000000586       0x1e /home/the_3d6/devtools/gcc-arm-none-eabi-8-2018-q4-major/bin/../lib/gcc/arm-none-eabi/8.2.1/thumb/v7e-m+fp/hard/crtn.o

.comment        0x0000000000000000       0x75
 .comment       0x0000000000000000       0x75 build//uboot/main.c.o
                                         0x76 (size before relaxing)
 .comment       0x0000000000000075       0x76 build//uboot/timer_core.c.o
 .comment       0x0000000000000075       0x76 build//uboot/fast_radio.c.o
 .comment       0x0000000000000075       0x76 build//uboot/uart_interface.c.o

.debug_info     0x0000000000000000     0x4009
 .debug_info    0x0000000000000000     0x1bb2 build//uboot/main.c.o
 .debug_info    0x0000000000001bb2      0x6db build//uboot/timer_core.c.o
 .debug_info    0x000000000000228d      0xaf6 build//uboot/fast_radio.c.o
 .debug_info    0x0000000000002d83     0x1260 build//uboot/uart_interface.c.o
 .debug_info    0x0000000000003fe3       0x26 build//uboot/gcc_startup_nrf52832_bootloader.S.o

.debug_abbrev   0x0000000000000000      0xae2
 .debug_abbrev  0x0000000000000000      0x3ae build//uboot/main.c.o
 .debug_abbrev  0x00000000000003ae      0x1f6 build//uboot/timer_core.c.o
 .debug_abbrev  0x00000000000005a4      0x20c build//uboot/fast_radio.c.o
 .debug_abbrev  0x00000000000007b0      0x31e build//uboot/uart_interface.c.o
 .debug_abbrev  0x0000000000000ace       0x14 build//uboot/gcc_startup_nrf52832_bootloader.S.o

.debug_aranges  0x0000000000000000      0x1e0
 .debug_aranges
                0x0000000000000000       0x68 build//uboot/main.c.o
 .debug_aranges
                0x0000000000000068       0x78 build//uboot/timer_core.c.o
 .debug_aranges
                0x00000000000000e0       0x80 build//uboot/fast_radio.c.o
 .debug_aranges
                0x0000000000000160       0x60 build//uboot/uart_interface.c.o
 .debug_aranges
                0x00000000000001c0       0x20 build//uboot/gcc_startup_nrf52832_bootloader.S.o

.debug_ranges   0x0000000000000000      0x180
 .debug_ranges  0x0000000000000000       0x58 build//uboot/main.c.o
 .debug_ranges  0x0000000000000058       0x68 build//uboot/timer_core.c.o
 .debug_ranges  0x00000000000000c0       0x70 build//uboot/fast_radio.c.o
 .debug_ranges  0x0000000000000130       0x50 build//uboot/uart_interface.c.o

.debug_line     0x0000000000000000     0x1a0c
 .debug_line    0x0000000000000000      0xacc build//uboot/main.c.o
 .debug_line    0x0000000000000acc      0x3d6 build//uboot/timer_core.c.o
 .debug_line    0x0000000000000ea2      0x61d build//uboot/fast_radio.c.o
 .debug_line    0x00000000000014bf      0x490 build//uboot/uart_interface.c.o
 .debug_line    0x000000000000194f       0xbd build//uboot/gcc_startup_nrf52832_bootloader.S.o

.debug_str      0x0000000000000000     0x151a
 .debug_str     0x0000000000000000      0xb6c build//uboot/main.c.o
                                        0xc0d (size before relaxing)
 .debug_str     0x0000000000000b6c      0x3e3 build//uboot/timer_core.c.o
                                        0x69c (size before relaxing)
 .debug_str     0x0000000000000f4f      0x373 build//uboot/fast_radio.c.o
                                        0x910 (size before relaxing)
 .debug_str     0x00000000000012c2      0x1db build//uboot/uart_interface.c.o
                                        0xbb0 (size before relaxing)
 .debug_str     0x000000000000149d       0x7d build//uboot/gcc_startup_nrf52832_bootloader.S.o
                                         0xb8 (size before relaxing)

.debug_frame    0x0000000000000000      0xabc
 .debug_frame   0x0000000000000000      0x18c build//uboot/main.c.o
 .debug_frame   0x000000000000018c      0x19c build//uboot/timer_core.c.o
 .debug_frame   0x0000000000000328      0x1c8 build//uboot/fast_radio.c.o
 .debug_frame   0x00000000000004f0      0x160 build//uboot/uart_interface.c.o
 .debug_frame   0x0000000000000650       0x28 /home/the_3d6/devtools/gcc-arm-none-eabi-8-2018-q4-major/bin/../lib/gcc/arm-none-eabi/8.2.1/../../../../arm-none-eabi/lib/thumb/v7e-m+fp/hard/libc_nano.a(lib_a-exit.o)
 .debug_frame   0x0000000000000678       0x2c /home/the_3d6/devtools/gcc-arm-none-eabi-8-2018-q4-major/bin/../lib/gcc/arm-none-eabi/8.2.1/../../../../arm-none-eabi/lib/thumb/v7e-m+fp/hard/libc_nano.a(lib_a-init.o)
 .debug_frame   0x00000000000006a4       0x20 /home/the_3d6/devtools/gcc-arm-none-eabi-8-2018-q4-major/bin/../lib/gcc/arm-none-eabi/8.2.1/../../../../arm-none-eabi/lib/thumb/v7e-m+fp/hard/libc_nano.a(lib_a-memset.o)
 .debug_frame   0x00000000000006c4       0x4c /home/the_3d6/devtools/gcc-arm-none-eabi-8-2018-q4-major/bin/../lib/gcc/arm-none-eabi/8.2.1/../../../../arm-none-eabi/lib/thumb/v7e-m+fp/hard/libc_nano.a(lib_a-vsnprintf.o)
 .debug_frame   0x0000000000000710       0x90 /home/the_3d6/devtools/gcc-arm-none-eabi-8-2018-q4-major/bin/../lib/gcc/arm-none-eabi/8.2.1/../../../../arm-none-eabi/lib/thumb/v7e-m+fp/hard/libc_nano.a(lib_a-nano-svfprintf.o)
 .debug_frame   0x00000000000007a0       0x60 /home/the_3d6/devtools/gcc-arm-none-eabi-8-2018-q4-major/bin/../lib/gcc/arm-none-eabi/8.2.1/../../../../arm-none-eabi/lib/thumb/v7e-m+fp/hard/libc_nano.a(lib_a-nano-vfprintf_i.o)
 .debug_frame   0x0000000000000800       0x28 /home/the_3d6/devtools/gcc-arm-none-eabi-8-2018-q4-major/bin/../lib/gcc/arm-none-eabi/8.2.1/../../../../arm-none-eabi/lib/thumb/v7e-m+fp/hard/libc_nano.a(lib_a-memcpy-stub.o)
 .debug_frame   0x0000000000000828       0x28 /home/the_3d6/devtools/gcc-arm-none-eabi-8-2018-q4-major/bin/../lib/gcc/arm-none-eabi/8.2.1/../../../../arm-none-eabi/lib/thumb/v7e-m+fp/hard/libc_nano.a(lib_a-memmove.o)
 .debug_frame   0x0000000000000850       0x38 /home/the_3d6/devtools/gcc-arm-none-eabi-8-2018-q4-major/bin/../lib/gcc/arm-none-eabi/8.2.1/../../../../arm-none-eabi/lib/thumb/v7e-m+fp/hard/libc_nano.a(lib_a-nano-freer.o)
 .debug_frame   0x0000000000000888       0x30 /home/the_3d6/devtools/gcc-arm-none-eabi-8-2018-q4-major/bin/../lib/gcc/arm-none-eabi/8.2.1/../../../../arm-none-eabi/lib/thumb/v7e-m+fp/hard/libc_nano.a(lib_a-nano-mallocr.o)
 .debug_frame   0x00000000000008b8       0x3c /home/the_3d6/devtools/gcc-arm-none-eabi-8-2018-q4-major/bin/../lib/gcc/arm-none-eabi/8.2.1/../../../../arm-none-eabi/lib/thumb/v7e-m+fp/hard/libc_nano.a(lib_a-nano-reallocr.o)
 .debug_frame   0x00000000000008f4       0x2c /home/the_3d6/devtools/gcc-arm-none-eabi-8-2018-q4-major/bin/../lib/gcc/arm-none-eabi/8.2.1/../../../../arm-none-eabi/lib/thumb/v7e-m+fp/hard/libc_nano.a(lib_a-sbrkr.o)
 .debug_frame   0x0000000000000920       0x30 /home/the_3d6/devtools/gcc-arm-none-eabi-8-2018-q4-major/bin/../lib/gcc/arm-none-eabi/8.2.1/../../../../arm-none-eabi/lib/thumb/v7e-m+fp/hard/libc_nano.a(lib_a-mlock.o)
 .debug_frame   0x0000000000000950       0x20 /home/the_3d6/devtools/gcc-arm-none-eabi-8-2018-q4-major/bin/../lib/gcc/arm-none-eabi/8.2.1/../../../../arm-none-eabi/lib/thumb/v7e-m+fp/hard/libc_nano.a(lib_a-nano-msizer.o)
 .debug_frame   0x0000000000000970       0x5c /home/the_3d6/devtools/gcc-arm-none-eabi-8-2018-q4-major/bin/../lib/gcc/arm-none-eabi/8.2.1/../../../../arm-none-eabi/lib/thumb/v7e-m+fp/hard/libc_nano.a(lib_a-reent.o)
 .debug_frame   0x00000000000009cc       0xb0 /home/the_3d6/devtools/gcc-arm-none-eabi-8-2018-q4-major/bin/../lib/gcc/arm-none-eabi/8.2.1/../../../../arm-none-eabi/lib/thumb/v7e-m+fp/hard/libc_nano.a(lib_a-lock.o)
 .debug_frame   0x0000000000000a7c       0x20 /home/the_3d6/devtools/gcc-arm-none-eabi-8-2018-q4-major/bin/../lib/gcc/arm-none-eabi/8.2.1/../../../../arm-none-eabi/lib/thumb/v7e-m+fp/hard/libnosys.a(sbrk.o)
 .debug_frame   0x0000000000000a9c       0x20 /home/the_3d6/devtools/gcc-arm-none-eabi-8-2018-q4-major/bin/../lib/gcc/arm-none-eabi/8.2.1/../../../../arm-none-eabi/lib/thumb/v7e-m+fp/hard/libnosys.a(_exit.o)
